meeting	sequence	speaker	statement	code	code2	section	fomc	mem_num
198811	0	GREENSPAN	 Good morning, everyone. Shall we start off by approving the minutes of the meeting of September 20th? Is there a motion? 	5	5	0.0	1.0	47.0
198811	1	CORRIGAN	 So move. 	5	5	0.0	1.0	31.0
198811	2	SPEAKER	 Second. 	5	5	0.0	0.0	999.0
198811	3	GREENSPAN	 Without objection. We have before us a proposal for a change to a calendar-year basis for terms of presidents as members of the Committee. You may remember that the Vice Chairman raised this issue a meeting or so earlier and we postponed it until this meeting. I thought it might be worthwhile to go over it at this time. Vice Chairman, would you like to repeat your proposal of that time? 	9	95	0.0	1.0	47.0
198811	4	CORRIGAN	 I think of the issue as quasi- housekeeping but with some substance. The point I raised, of course, was that under current arrangements the four rotating Reserve Bank presidents on the Committee who are responsible for the vote to establish the targets for each calendar year at the February meeting rotate off the Committee a couple of weeks later. It seemed to me that as a matter of good procedure there was something to be said for changing those dates so that the four rotating Reserve Bank presidents who vote for the annual targets remain on the Committee throughout the calendar year [to which those targets apply]. The Committee's General Counsel [Mr. Bradfield] has advised that he thinks that such a change can be made within the framework of the statute, and it seems to me, Mr. Chairman, that simply as a quasi-housekeeping matter--or to put it differently, a matter of good procedure--that there is some logic to trying to structure things to have that consistency over the calendar year and with the establishment of the annual targets. 	9	95	0.0	1.0	31.0
198811	5	GREENSPAN	 You stipulated at the time, if I remember, that the members who vote for the ranges should be responsible for implementing them. 	9	95	0.0	1.0	47.0
198811	6	CORRIGAN	 Well, that is the argument. 	9	95	0.0	1.0	31.0
198811	7	GREENSPAN	 I think it can be stated a bit more firmly in the sense that you can't really ask individuals to implement a policy with which they are in disagreement. So, it's a little more than strictly to simplify the structure. It's an eminently sensible motion, and I am wondering what other members of the Committee have to say on this issue. 	9	95	0.0	1.0	47.0
198811	8	BOEHNE	 I don't think this is a very important issue, so what I'm about to say should be kept in that context. I don't think it makes much difference one way or the other. I think the reasons that have just been expressed are logical and have some merit. But the argument on the other side is that permanent members constitute two-thirds of the FOMC. I've always thought of the FOMC as a continuing body. The press tends to make an issue, whenever we have this rotation, that the Committee is going to change or is not going  to change, but it seems to me it really has not. Our deliberations have tended to be collegial, and there has been something permanent about the monetary policy of the Federal Reserve. If you have a change from the Philadelphia District to the Richmond District on the FOMC, that in itself should not lead to expectations that there might be a significant change in policy. There is more stability to the Federal Reserve than that, and even though not all of us vote, we do all participate in these decisions. While the vote is clearly important and of legal significance, it has always seemed to me that the collegial spirit of the discussion has been more important, and 99.999 percent of the meetings that I've ever been a part of [have been of this nature]. I think this kind of change tends to emphasize the individual members of the Committee over the Committee as a whole, and the System as a whole, and the collegial spirit. While I don't think this is a very big issue, on the whole I would prefer not to make a change. 	9	95	0.0	1.0	33.0
198811	9	FORRESTAL	 Mr. Chairman, Ed Boehne has expressed my views very, very well. I would put it perhaps just a little differently. It seems to me that the actions on the Humphrey-Hawkins targets are basically actions of the Committee itself, and the change in rotation shouldn't affect the ability of the Committee to carry out the targets. I think that the voting members who come on after March 1st are in a sense obliged, really, to accept and to enforce if you will the targets that have been established by the Committee. But, like Ed, I don't think that this is a very big issue. Were it the will of the Committee, I certainly wouldn't object. I say that as one who would be affected by the change in the sense that my term would end ordinarily on March 1st. As I understand it, if we adopt this change, my term would end earlier, but it's not all that significant as far as I'm concerned. On the legal issue, our counsel also looked at it and agreed with the views expressed by Mr. Bradfield. 	9	95	0.0	1.0	39.0
198811	10	GREENSPAN	 President Hoskins. 	9	95	0.0	1.0	47.0
198811	11	HOSKINS	 I support the change for two reasons. One, I came on at the time when targets had already been established, and while I didn't have major disagreements with the targets I feel that I [didn't have] much infuence over them. Now, that's a small point. The larger point is one to which you alluded. There's a sense of accountability that gets attached to the targets when you do it. I think people will feel more responsible, and the public will have a much better record [by which] to measure people and their performance. So, there's some accountability with this proposed change that I would support. 	9	95	0.0	1.0	49.0
198811	12	GREENSPAN	 Governor Seger. 	9	95	0.0	1.0	47.0
198811	13	SEGER	" I want to make a different point, because I don't know how presidents feel, not being a president. But I can tell you, if this were done right now, the media would pick this up and say the Governors are trying to get rid of Bob Forrestal because he's a ""meanie"" from Atlanta. And we're changing this arrangement to get rid of certain people. I can just see it. "	9	95	0.0	1.0	40.0
198811	14	BOEHNE	 It's true, too! 	9	95	0.0	1.0	33.0
198811	15	SEGER	 I didn't say whether that was true or not.  	9	95	0.0	1.0	40.0
198811	16	BLACK	 I think you take it the wrong way. It's the other three of us! 	9	95	0.0	1.0	7.0
198811	17	SEGER	 Seriously, the media would just love to pick up this us-versus-them routine, and while I haven't seen the us-versus- them at work [on the Committee], this would be something else that they would seize on--on top of whatever other considerations there might be. So I'm sure you can't keep this quiet. 	9	95	0.0	1.0	40.0
198811	18	GREENSPAN	 President Keehn. 	9	95	0.0	1.0	47.0
198811	19	KEEHN	 I think Ed and Bob make a very good point, but nonetheless I come down in favor of the change. I wasn't aware of the background of the March 1st vote until I read the memorandum. I always thought it was a very awkward date coming in the middle of the Humphrey-Hawkins testimony. I just feel there's a little bit of confusion there for the reasons that we've said: namely, that by setting the ranges we have some accountability for them. I think for the rotation to be on that basis, it will be a cleaner way to do it, and I'd be in favor of the change. 	9	95	0.0	1.0	35.0
198811	20	PARRY	 I support the change as well. If the change were announced, say, at the end of the year and the reasons explained, I don't think there would be much press pressure to it. The other thing is that it probably would be wise to emphasize one of the points that Ed has made--that the FOMC is a continuing body. But it does make some sense. If we were starting off today having no precedent, we clearly would probably opt for something more like what you are proposing than what we have. So I would support it. 	9	95	0.0	1.0	45.0
198811	21	GREENSPAN	 That I am sure is correct. President Guffey. 	9	95	0.0	1.0	47.0
198811	22	GUFFEY	 I, Mr. Chairman, would also support the change on the basis of the continuity and accountability issues already discussed. 	9	95	0.0	1.0	20.0
198811	23	GREENSPAN	 President Melzer. 	9	95	0.0	1.0	47.0
198811	24	MELZER	 I would favor it as well. I don't have anything to add to the comments that have been made. 	9	95	0.0	1.0	42.0
198811	25	GREENSPAN	 Anybody else who's got views on this? Let me say that this is not something that we should bring to a vote and get a count. Unless we are unanimous, I don't see how we can move forward on this in an appropriate fashion. So I really want to put it to those who feel uncomfortable with it: Is your degree of discomfort at a level where you think it is inappropriate for us to do this? Or is it marginal? I do think that unless we do it by acclamation, it's an inappropriate action to be taking at this stage. 	9	95	0.0	1.0	47.0
198811	26	FORRESTAL	 Well, I certainly would not object, Mr. Chairman. I just wanted to make the point, as Ed did, that this is a continuing body. We need to stress the collegial atmosphere of this group and the fact that actions taken are actions taken by the Committee. But I have no objection and I would certainly join--  	9	95	0.0	1.0	39.0
198811	27	GREENSPAN	 Suppose that in the public statement made with respect to this that that particular point is emphasized. 	9	95	0.0	1.0	47.0
198811	28	FORRESTAL	 I would agree to that. 	9	95	0.0	1.0	39.0
198811	29	GREENSPAN	 Would that solve your problem? 	9	95	0.0	1.0	47.0
198811	30	FORRESTAL	 Sure. 	9	95	0.0	1.0	39.0
198811	31	BOEHNE	 Looking at me? 	9	95	0.0	1.0	33.0
198811	32	GREENSPAN	 Yes. 	9	95	0.0	1.0	47.0
198811	33	BOEHNE	 Well, I have a higher level of discomfort for the change. If it comes down to 18 people around the table who want to do it, I'm not going to stand in the way. But if I were going to do it, I would not make it effective at the end of this year. I would do it down the road, to get away from the point that Martha makes. There is, unfortunately, this business in the press about presidents versus governors--which is a lot of nonsense, but it's there. In that context --that's not my main reason--but I think that it is supportive to my concern. If I were going to do it, I would make it effective a year from now, or something, just to get away from any immediate concern about policy. 	9	95	0.0	1.0	33.0
198811	34	CORRIGAN	 There is a way you can do that, of course, and that is make it effective a year from now and just mention it almost in passing in your testimony in February that beginning next year we're going to have this procedural change. I don't think it matters all that much in terms of-- 	9	95	0.0	1.0	31.0
198811	35	BOEHNE	 The other thing is, if we made it effective this year, we'd have to go back to all of our Boards of Directors and get them to change those resolutions of elections because I think it says in there that the terms run from March 1st to February 28th, or whatever it is. It might be better to do it on a pro forma basis rather than go back and change the terms that are already in existence. 	9	95	0.0	1.0	33.0
198811	36	GREENSPAN	 That strikes me as not a bad way to come at this. Would you amend your resolution to do that? 	9	95	0.0	1.0	47.0
198811	37	CORRIGAN	 Sure. 	9	95	0.0	1.0	31.0
198811	38	GREENSPAN	 If there are no objections then, I would presume it's the will of this Committee that the change occur not on January 1st, 1989, but on January 1st, 1990, and without objection I will assume that that is the will of the Committee. 	9	95	0.0	1.0	47.0
198811	39	ANGELL	 So, in effect, we're making this new term beginning next March run until December 31. 	9	95	0.0	1.0	43.0
198811	40	CORRIGAN	 Right. 	9	95	0.0	1.0	31.0
198811	41	GREENSPAN	 That is correct, yes. 	9	95	0.0	1.0	47.0
198811	42	ANGELL	 Which seems to me is the appropriate way to do it.  	9	95	0.0	1.0	43.0
198811	43	BERNARD	 What the Committee is doing is amending its Rules of Organization. 	9	95	0.0	0.0	999.0
198811	44	GREENSPAN	 In effect, yes. The next item on the agenda is an interesting analytical work which will be evaluated by Richard Porter and later by Don Kohn who wants to, as usual, have the last say on this issue. 	9	91	0.0	1.0	47.0
198811	45	PORTER	 This briefing summarizes the memorandum sent to you  last week concerning the long-run relationship between M2  and prices. Chairman Greenspan asked us to evaluate M2 as  an indicator of longer-run inflation trends, suggesting a framework based on the concept of M2 per unit of potential  real output.  Your first exhibit reviews the key concepts and  relationships that we have drawn upon in implementing this idea. The top panel of the exhibit displays the quantity  equation MV = PQ which states that the stock of money M  times its income velocity, V, equals the product of prices,  P, and real output, Q. If we consider a long-run situation  where velocity may be presumed to have settled down to an  equilibrium level V* and real output is at its potential  level identified as Q*, the quantity equation can be  rearranged to determine the long-run price level toward  which actual prices are headed, for any given level of the  money stock. This long-run price concept, which we call P*,  is defined formally in the second panel of the table. The  equation states that, in the long run, prices will be  proportional to the money stock per unit of potential real  GNP, with the proportionality constant given by V*.  From the quantity equation for actual prices and  the equation for P*, we can derive an identity for the gap  between actual and long-run price levels from the difference  between equation (1) and equation (2). Specifically, the  third equation in the bottom panel of the first exhibit  states that for the logarithms of the variables, the gap  between P and P* is equal to the sum of the output gap, the  difference between potential real output Q* and current real  output, and the velocity gap, the difference between the  current value of velocity and its long-run value V*. If,  for example, prices were below their long-run level, this situation would be consistent with the economy running above capacity and/or velocity below its trend. As a result, prices would then be expected to rise to reach their  equilibrium level.  Finally, the separate terms on the right hand side  of this equation can be identified with different views of  the inflation process. The output gap is commonly  associated with the expectations-augmented Phillips curve,  while the velocity gap, has more of a pure monetarist  orientation.  To implement P* empirically we need to select a  monetary aggregate with a long-run velocity level that can  be readily determined. Based on the long-run stability of  M2 velocity, V2, shown in exhibit 2, it appears to be much  easier, to specify a long-run velocity estimate for this  aggregate than for any other aggregate. While V2 is  sensitive to the movements in its opportunity cost,  flexibility in M2 deposit rates tends to stabilize these  costs in the long run. Typically, V2 eventually returns to a level close to its historical average, shown by the longer  of the solid lines in this exhibit. One cannot rule out the  possibility that the appropriate long-run velocity estimate  is lower in the 1980's than it was over earlier decades, as  suggested by the shorter line representing the mean for the period from 1982:Q4 to 1988:Q2 in this exhibit. It is possible that the introduction of deregulated accounts such  as MMDAs permanently lowered opportunity costs and raised  the demand for M2, and, in turn, lowered V*. In our  empirical testing we failed to confirm a downward velocity  shift, but this represents an area that we are continuing to  evaluate. In what follows, we will set V* equal to its  longer-run historical average in the construction of long-  run prices.  The price level, as measured by the GNP deflator,  is plotted with the value of P* in the top panel of the  third exhibit, while the year over year rate of inflation is  shown in the lower panel of the chart. To be consistent  with the econometric work, it is helpful to show the  relationship between these two series after a natural log  transformation has been applied to them; thus, the plot is  drawn on a ratio scale. Eight vertical lines are shown in  both panels at the point where the price level crosses the  curve for P*.  In general, this chart shows that when the long-run  price measure is above the current deflator, inflation will  accelerate, and, conversely, it will decelerate when the  long-run price measure moves below current prices. The chart also shows that the change in the inflation rate  usually lags the change in the gap between P and  P*. In the latest episode in which P* rose above the  deflator in early 1985, prices have not shown much tendency  to increase on a year over year basis, at least through the  third quarter of this year. As of that quarter, the level  of the GNP deflator would have to increase by 3.5 percent to  close the gap between P* and the deflator. In the current  quarter, inflation accelerates to 4 1 percent on a 4-quarter  basis in the staff Greenbook forecast, and with low money  growth projected in the Bluebook to hold down P*, the gap is  expected to narrow further to between 2.0 and 2.2 percent.  EMPIRICAL WORK  We now turn to the empirical econometric work which  explores the distributed lag relationship between P* and  subsequent changes in the deflator. Given the definition of  P*, such a relationship will, in turn, determine the lead  lag relationship between M2 and prices. The upper panel of  the fourth exhibit shows the basic regression structure of  the family of models that we have examined. In these  models, the change in inflation rate, Ait, is explained by  either the difference between p and p* directly, or, more  generally as in the upper panel, by the output and velocity gaps that together determine the difference between p and p*. Setting a. - 0 yields a velocity gap specification; alternatively, if cu = 0 in this equation, an output gap model emerges. Constraining the two a coefficients to be  the same produces a price gap model since the output and  velocity terms sum to the price gap. Statistical tests  indicate that the a coefficients can be treated as  identical, and so the price gap model   shown in equation (6) of this exhibit   best fits the data. It also passes a  battery of diagnostic tests designed to detect common kinds  of misspecification that frequently arise with economic time  series.  The lower panel displays the results from  estimating this basic framework over longer time spans,  using data averaged over one-and over two-year  periods, equations (7) and (8). The results show that the  equation has greater explanatory power as the time period  over which the variables are being measured is  extended. At the two-year frequency the simple price gap  equation explains around 71 percent of the variation in the  change in inflation.  Because the dependent variable is the change in  inflation rather than its level, the dynamic properties of  the model as P adjusts to P* are not simple. If, for  example, P were above P*, inflation will keep decelerating  until prices equal P*. But when that occurs, the actual  inflation rate will be below the rate implied by the  movements of P* and, as a consequence, both inflation and  the price level will overshoot their equilibrium values. However, the econometric work strongly supports this  specification, perhaps reflecting inertia in the inflation process. As a result, inflation rates would not suddenly shift once P equalled P*. One implication of this is that  movement of money growth from one straight-line path to  another would result in substantial oscillation of inflation  around the new equilibrium value.  In the memorandum, we also examined how accurate  the various models   that is, equations using the output, velocity, or the price gaps   would be in forecasting  inflation for periods from one to three years. None of  these models produced any appreciable bias. The price gap  model generally performed the best and produced the smallest  mean absolute and root mean squared errors. Your last  exhibit shows Q4 to Q4 forecast results from the price gap  model for three different time spans: one year ahead (upper panel), two years ahead (middle panel), and three years  ahead (lower panel). The solid line in the table represents  the average annualized rate of growth of prices over these  various periods, while the diamonds represent the forecasts  from the price gap model for the same period. The largest  one-year-ahead error made by the model was 2.7 percentage  points in 1974 following the first oil shock in 1973. The  specification produced an error of about the same magnitude after the second oil shock in 1979. On balance, over the  one to three year periods shown, the price gap model  produces reasonably small root mean squared errors averaging in the neighborhood of 1.3 percentage points.  CONCLUSION  In conclusion, there appears to be a relatively  simple empirical relationship between P*   measured as M2  per unit of potential GNP times the long-run value of the  velocity of M2   and inflation. If P* is above the current  price level, prices will tend to accelerate with a lag. If  P* is below prices, prices will eventually tend to  decelerate. To implement the approach requires that only  M2, potential real GNP, and long-run velocity be determined.  In particular, we can refrain from forecasting interest  rates, exchange rates, fiscal policy, real output and the  like. This relationship seems to be relatively robust  statistically and to be reasonably accurate as a simple  forecasting tool over one-to three-year periods. Finally,  it provides a simple framework for keeping track of the  relationship between the stock of M2 and the price level.  Don Kohn will now discuss some policy implications  of this analysis. 	9	91	0.0	0.0	999.0
198811	46	KOHN	 I thought I would conclude with a few thoughts about the implications of this research for policy formulation.  It is tempting to try to use this model for intermediate-term  policy analysis and formulation. The model has done reasonably well in  one-year ahead inflation forecasts. And right now, the price gap model  paints an eerily similar picture to the greenbook forecast. That is,  both show current conditions conducive to some pickup in inflation, but  under both, moderate money growth next year on the order of 4 percent  relieves those pressures to an extent by bringing p* to just below p in  the price gap model, and in the greenbook forecast by raising the unemployment rate slightly to a level thought more consistent with nonac-  celerating inflation.  But, just as the greenbook forecasting procedure is sensitive  to assesments of underlying demand pressures and Phillips curve-type  interactions, the predictions of the price gap model are sensitive to  the assumption about the long-run level of velocity. If, for example,  deregulation has reduced the long-run level of velocity, the current  situation looks somewhat different. With a lower level of velocity, p  and p* are already in alignment and 4 percent m2 growth would put  noticable downward pressure on inflation. Velocity could rise next year  if interest rates went up, but it would be above the new longer-run  level and circumstances would be set for an appreciable subsequent  decline in inflation, interest rates, and velocity.  The point is not whether one or another forecast is correct,  but rather to highlight the sensitivity of the analysis to the velocity  assumption. Over longer periods, small differences in assumed levels of  velocity are much less important. And it is in the long-run relationship that I think the analysis is most interesting. The R squares for 2  year forecasts using past values of money are quite high, and the errors  in 2 and 3 year ahead simulations are relatively low. It is in these  longer simulations that the price gap model out performs the output gap  model. In a sense, the price gap model re-establishes an empirical  basis for the long-run relationship of money and prices that doesn't  rely on a complex structural model and doesn't break down in the 1980's.  While most of us have continued to assert that this relationship should  prevail over sufficient time, the old specifications that seemed to give  reliable guidence through the 1970's had gone badly off track in recent  years. Not that the model gives much comfort to those who would guide  policy by relatively simple money growth rules, such as constant or  gradually declining money growth rates. As Mr. Porter pointed out,  especially when the system is shocked or begins in disequilibrium, such  rules can result in sizable fluctuations in prices. But it may tend to  sharpen the focus on the long-run trends and relationships between  growth in important measures of liquidity and changes in the price  level. 	9	91	0.0	0.0	999.0
198811	47	GREENSPAN	 Any questions for Messrs. Porter and Kohn? 	9	91	0.0	1.0	47.0
198811	48	HOSKINS	 I don't have a question, I have a comment. I commend the staff on the research. It is cast in very familiar terms for me, and therefore I'm quite comfortable with it. I see lots of P's, Q's, and M's, and Vs. I think it couches the debate, or the analysis, in the appropriate form for the long term, which is price stability. If we simply look at our long-term targets that we internally set for next year, 3 to 7 percent, we can be at zero percent inflation with this approach by 1993 by moving targets down by one percentage point each year. To make the test a little better, you took a look at actual M2? 	9	91	0.0	1.0	49.0
198811	49	PORTER	 True. 	9	91	0.0	0.0	999.0
198811	50	KOHN	 Yes. 	9	91	0.0	0.0	999.0
198811	51	HOSKINS	 And the forecast didn't have that. So what you tried to do is to make the test a little clearer. You used the midpoints of the target range, since that's the information the Committee had at the time, and it hardly did any damage to your results. The root mean square goes up because of 1987. 	9	91	0.0	1.0	49.0
198811	52	PARRY	 I have a question about the approach. It's a single-equation approach, and there is an assumption therefore that money is exogenous. Yet, we know that throughout this period for which you got your statistical results that at times money was endogenous--that you were reacting to what was happening to prices. It seems to me that that is a point which has some bearing on the usefulness [of these results]. The second point is that for some of these [periods] velocity is more stable. If you look at Chart II, it looks to me that if you were at different points of history, you might have concluded as you drew a line most recently that you were going off the long-run velocity line. We know that potential real GNP changes over time. I don't know how much that would lead us astray, but it seems to me that assumptions about both of those being unchanged over time are potentially dangerous with respect to-- 	9	91	0.0	1.0	45.0
198811	53	PORTER	 Well, it is true that M2 has an endogenous component over time. It is strictly one equation, but one period ahead forecasts are okay with a lag. So, clearly, over some period of time the FOMC could potentially control M2 to a pretty good approximation. 	9	91	0.0	0.0	999.0
198811	54	PARRY	 Sure.  	9	91	0.0	1.0	45.0
198811	55	PORTER	 And if this equation seems to have worked in a variety of periods--I guess that's what President Hoskins said--maybe the approach would work in other situations. But that is a weakness of the approach and you're-- 	9	91	0.0	0.0	999.0
198811	56	GREENSPAN	 Can I propose that the endogeneity is a short-term issue if one can demonstrate--and indeed the data do demonstrate--that carrying these out another 50 years that in fact M2 velocity is trendless or without any really perceptible change [in trend]. Once you have stipulated that, the endogeneity problem disappears over the long run because clearly the trend of velocity can not be a function of anything other than structural aspects of the financial system over the long run. If that's the case, then the issue of the two-year or three-year or five-year projections ceases to have that mathematical property. While I certainly would agree that in the short run there is a great deal of endogeneity in it, I would suspect that that property decays very rapidly and probably is even insignificant over two- and three-year horizons. 	9	91	0.0	1.0	47.0
198811	57	KOHN	 We ought to be clear in response to President Parry's second question that when the staff made those one-, two-, or three-year ahead projections, we assumed we didn't know anything about velocity except what had occurred up to that time. So all those projections were made with the average velocity up to that period; and implicitly it was assumed that velocity would remain stable. But it turns out that the projections are pretty good--amazingly good in my view--on that assumption that the dynamics of the model apparently capture some of the changes in velocity. The question really is, if we [unintelligible] the so-called Lucas critique and started targeting P*. would people change their behavior? If I can reinterpret the Chairman's point, if we can show the behavior hasn't changed over many different monetary policy regimes stretching back into the early part of the 20th century, it is probably a pretty good bet that something pretty fundamental is going on there. You could change the regime without changing something fundamental in the way people handle their liquid assets. 	9	91	0.0	0.0	999.0
198811	58	PARRY	 What about potential real GNP? That can change for other reasons, and it does change for reasons that sometimes are very difficult to anticipate. 	9	91	0.0	1.0	45.0
198811	59	KOHN	 Right. We did estimates using various ways of looking at that. Most of the results are in the Board [staff study]. 	9	91	0.0	0.0	999.0
198811	60	PARRY	 I see. 	9	91	0.0	1.0	45.0
198811	61	KOHN	 When we have used other measures of potential GNP, P* is not that sensitive to that unless those changes are much larger than the kinds of changes that we have experienced in the past. 	9	91	0.0	0.0	999.0
198811	62	GREENSPAN	 Governor Seger. 	9	91	0.0	1.0	47.0
198811	63	SEGER	 I just have a question; I hope it's a fair one. What if you had done this project 40 years ago, and ran it and established your equations, and so forth, would that have given us good guidance going forward?  	9	91	0.0	1.0	40.0
198811	64	KOHN	 The only way I can answer that is to refer you to Exhibit 5, because this exhibit in effect reports on the experiment you just proposed. That is, suppose the equation was fitted up to a certain point, say 1980, and then projected, and then '81 is a slightly [unintelligible]. 	9	91	0.0	0.0	999.0
198811	65	PORTER	 This chart here fits up to the end of one year, and then forecasts it three years on the bottom. 	9	91	0.0	0.0	999.0
198811	66	KOHN	 Right. So that this [unintelligible]. 	9	91	0.0	0.0	999.0
198811	67	SEGER	 So this relationship would pick that up? Because often I see econometric models that cheat. They have the advantage of what has happened, and they go back and say, well, this really would have worked. Whereas in fact if you had done it earlier, it wouldn't have worked. But this doesn't-- 	9	91	0.0	1.0	40.0
198811	68	PORTER	 This isn't subject to that other than the fact that these forecasts do embody the M2 revisions made after the period. But other than that, those estimates of real GNP might have been slightly different at the time but that varies, and possibly there's nothing there at all. I think that would be very slight. Otherwise, the parameters and the assumptions about what long-run velocity was could have been known at the time. 	9	91	0.0	0.0	999.0
198811	69	SEGER	 Thank you. 	9	91	0.0	1.0	40.0
198811	70	GREENSPAN	 President Hoskins. 	9	91	0.0	1.0	47.0
198811	71	HOSKINS	 Just a follow-up comment on the comments you made in that I have a concern about it and that is we haven't really formally and aggressively targeted M2 so that the market believed it. In that sense, over time you can say we had lots of different structural regimes and all that, but we never tested Goodhart's law. We never said this is what we're going to do, and I have concerns that once we tell the market that this is what we're going to do, would M2 function as it has in the past? That's a concern I have. 	9	91	0.0	1.0	49.0
198811	72	JOHNSON	 What he means is, if you take it out far enough, you could probably wash all that out. But the point I'm just making about this is that some people think it is a shorter period of time to [get full] adjustment and smoothness, but I have to think that in the short run it could be a very, very tumultuous situation. This is very good in terms of the long-run picture, but in the long run, we're all dead. 	9	91	0.0	1.0	44.0
198811	73	GREENSPAN	 Well, Lee, I think the issue you are raising does wash out over a three-year horizon, because so long as it's a type of trend like the one we are going through now--I mean, are we targeting M2? In a certain sense, we are or we are not, depending on how rigidly-- 	9	91	0.0	1.0	47.0
198811	74	HOSKINS	 I agree. 	9	91	0.0	1.0	49.0
198811	75	GREENSPAN	 The question of rigidity. 	9	91	0.0	1.0	47.0
198811	76	HOSKINS	 But if the markets see something in our directive, six variables that we're looking at, one of which happens  to be M2 and which we're not as aggressively targeting as we perhaps targeted the Ms in the early '80s, would we get the same result over time? I don't know the answer. If we move forward with four or five things that we have listed in the directive as important to us, the market would say that M2 is one of them. And you may not get that effect, but I have no way of knowing. 	9	91	0.0	1.0	49.0
198811	77	GREENSPAN	 Vice Chairman. 	9	91	0.0	1.0	47.0
198811	78	CORRIGAN	 Well, it seems to me that this approach, in contrast to what I will call a naive monetarist model, does say something that is both very intuitive and very important. What it says is that some given M2 target has different inflationary implications depending upon the amount of slack in the economy, and that is both important and intuitive. What's good about this is that it does confirm that intuitive notion in a fairly robust way, to use your term. In that sense, it has a great deal of appeal, and it also says something I think rather compelling about what's wrong with the naive monetarist perception of things. Now having said that, I guess my judgment as to its utility in a policy context is somewhere along the following lines: I would not be willing to go so far as to adopt what I think you're calling a rigid M2 targeting approach simply on the basis of what we see here. On the other hand, I do think that it can be useful to the Committee internally in terms of trying to frame our thinking more systematically as to what might constitute reasonable targets over time. In that sense, it has some real utility because I'm not ready to jump on the M2 bandwagon to the exclusion of everything else, which will come as no surprise to you. 	9	91	0.0	1.0	31.0
198811	79	GREENSPAN	 It will come as no surprise to you that I agree with what you just said about [unintelligible] explanation. Governor Angell. 	9	91	0.0	1.0	47.0
198811	80	ANGELL	 Well, I'm delighted of course to see this impetus to the monetary aggregates because certainly I think all of us have known that our job in regard to long-run price stability has to be related to what we do in regard to facilitating money and avoiding getting too much money in the system. The record of this year is of having M2 clearly appear to be running against our upper limits in the first quarter and our taking offsetting actions, and it seems to me that that was indeed appropriate. We now have M2 below 5 percent on an annual growth rate basis over a 24-month period for the first time, I think, since 1962. And it seems to me that this does bolster that [unintelligible] and that view. I would caution, however, that what I think Manley Johnson has been suggesting in regard to the short run, and that is if we make short-run mistakes and get the economy in a severe recession the problem with that is that you end up then not behaving well in regard to monetary aggregates. So, I think this is indeed a very extraordinary development which bolsters those of us who want to see M2 raised [in importance]. We just need one more step and that is to be sure to use commodity prices as some signal as to when to tighten the screws. 	9	91	0.0	1.0	43.0
198811	81	GREENSPAN	 President Black. 	9	91	0.0	1.0	47.0
198811	82	BLACK	 Well, Mr. Chairman, I guess like you are not surprised by what Jerry Corrigan said, you probably won't be surprised by what I say either. I like this paper very much because I think it  has very important implications about how we ought to conduct our long-run policy. The main thing the evidence says to me is the same thing I think it said to all of you--namely, that we can control prices over the long run by controlling M2. It also suggests that there has not been in the last 30 years or so enough of a permanent shift in demand for money that that would have been troublesome. Now, of course, it does point out that we might have shifts in money over time for which we'd have to allow, but I don't think that really negates the basic conclusion that we can control the price level over the long run while targeting the M2. The idea of controlling inflation in this manner obviously is not a new one, but the evidence given in this paper I think makes it pretty dramatic and gives it added support. I think all of this really raises some fundamental questions about our current long-run strategy. Obtaining long-run price stability is clearly one of the preeminent goals of monetary policy; I would say it is the goal of monetary policy. We frequently state this in our public statements, and yet there's nothing really in our current set of procedures that ensures that we are really going to target M2 or any other aggregate over the long run. It's true that we announce that we have targets for these aggregates, but we don't hit those targets a lot of time. And we allow base drift to come in, and so there's no assurance in our present procedures that M2 is going to grow at a rate that will be compatible over the long run with price stability--over 2, 3, 4, 5 years, or whatever you want to target on. I've been dissatisfied with this procedure for a long time, and I think there are some other members who have been somewhat uncomfortable with it, too. The staff paper provides impressive evidence that we really can control price stability in the long run by controlling M2, if we just change our procedures to ensure that we keep our long-run M2 [unintelligible]. And I'd like to make one further observation about section 6 of the staff paper which explores the long-run dynamic characteristics of the price gap equation. The analysis in this section suggests that if we fix the M2 growth at a constant rate, the price level [fluctuation] would remain pretty wide around the equilibrium level for many years before stabilizing the-- 	9	91	0.0	1.0	7.0
198811	83	JOHNSON	 100 years. 	9	91	0.0	1.0	44.0
198811	84	BLACK	 Yes, that's right! And this is very discouraging more so to me than to you, Manley, because I'm an old man. I'm going to be on a fixed income in four years. We have to wait until our grandchildren to see this price stability. 	9	91	0.0	1.0	7.0
198811	85	JOHNSON	 Our great grandchildren! 	9	91	0.0	1.0	44.0
198811	86	BLACK	 Yes, our great grandchildren. I haven't even gotten my first grandchild yet, but do have one coming in January in case any of you are interested! I think it needs to be emphasized that this particular analysis deals only with the special case where there is a stable rate of growth in the money supply. I think it's reasonable to suppose that we could have some kind of reactive mechanism that would bring this under better control and damp these oscillations. We had one of a sort when we were targeting nonborrowed reserves. If there was an overshoot in the aggregates [under that sort of targeting] we made the banks borrow half of that overshoot. And that was an automatic mechanism. There are others that obviously  could be used. I would also draw the opposite conclusion from the Lucas critique on this and say that intuitively I think if you had a stable rate of growth in money supply over this 30 years, that you would not have changed the structure of the models. So, if you targeted a stable rate of growth after that you would have had less in the way of oscillations this produced because these are two very different regimes and that is the issue to which I think the Lucas critique was addressed. I've said too much, Mr. Chairman, but I surely like what the staff is doing. I would not go quite so far as one of my colleagues and say the first eight pages represent the best work the staff has ever done because I think it has done a lot of other awfully good work, too. 	9	91	0.0	1.0	7.0
198811	87	HOSKINS	 Should we suggest a name for your grandchild? M2 or Base? 	9	91	0.0	1.0	49.0
198811	88	BLACK	 There's a problem with that! 	9	91	0.0	1.0	7.0
198811	89	GREENSPAN	 President Stern. 	9	91	0.0	1.0	47.0
198811	90	STERN	 Well, like many, I guess I found this to be a valuable and stimulating paper. In a way it formalizes a bit some of the back of the envelope kinds of calculations that a lot of us go through from time to time. But a reservation that I do have about it all is that this is a rather specialized model with lots of special restrictions in it at least implicitly. If one runs some more general models and tries to identify a significant impact of M2 on prices, it can be very, very hard to find that. And so I'm a little at a loss at this stage to know exactly what to make of these results in a policy sense or in a more general sense. I have some sympathy with them and I would like to think that M2 is important and significant and can be a valuable guide; but I must say I think we may have here only the tip of the iceberg as far as some of the evidence that we ought to be considering is concerned. 	9	91	0.0	1.0	41.0
198811	91	GREENSPAN	 But there is a simple relationship here which is algebraically necessary once you stipulate that velocity is trendless. If velocity is trendless, then it is an algebraic necessity that the price level be proportional to unit money supply. And that's a [link] which can only be broken if we can argue that velocity has no constancy to it. All the rest of this is just interesting additions, but the essential tie between prices and M2 is defined by that relationship. If the remarkably stable trend in M2 velocity since the turn of the century, and maybe earlier, is an accident, then I think one can argue that the relationship between M2 and the price level is an accident. But if you can't argue that, you're required to stipulate that unit money supply is governing the level of prices over the longer run. 	9	91	0.0	1.0	47.0
198811	92	STERN	 Yes, I would accept that as far as the longer run is concerned. 	9	91	0.0	1.0	41.0
198811	93	GREENSPAN	 But I don't think much more is being made of this. It's very interesting that the R squares rise significantly as they do over the long run because in most models it's in exactly the reverse order. President Morris.  	9	91	0.0	1.0	47.0
198811	94	MORRIS	 Well, Mr. Chairman, most things have already been said, and I certainly agree and I think most economists agree that in the long run the price level is a function of the long-run rate of growth in the money supply. I think for that reason it would be useful every six months for this Committee to take another look at the last chart [in the staff study]. On the other hand, if you look at chart 2, exhibit 2, you see that in the third month M2 velocity is extremely unfavorable and therefore we've got to think in terms of the long-run trend of M2 while at the same time recognizing that any rigid targeting of M2 is not going to produce a desirable outcome with respect to nominal GNP. So, I think it has a value but not a value in setting monetary policy in the short run. 	9	91	0.0	1.0	1.0
198811	95	GREENSPAN	 I think the real value [occurs] when we get to a position where policy has to be eased and we want to induce as a consequence an acceleration [in the growth] of the monetary aggregates. If we had out there what a noninflationary level of M2 should be, say, three years out, I think it would give us a little better insight as to what our M2 range should be in a period of ease. In other words, when do we get into dangerous levels [of inflation] where the degree of retrenchment to get back to a stationary noninflationary environment [is substantial, we can better gauge] what would be the consequences of various different types of policies we [might] implement at that time. 	9	91	0.0	1.0	47.0
198811	96	MORRIS	 I just wonder, though, whether it's safe to say in retrospect, [given] the very large rate of growth in M2 since 1986, that a much tighter policy would have been desirable in 1986. I don't have that sense. I think that in certain contexts that may well be true, but it seems to me that this exhibit 2 dominates, and I'd hate to see us think if we had had a slow rate of growth in M2 for a couple of years that this would give us the feeling that we can be a little looser now because we don't have to worry about inflation in 1989. I think that would be a completely wrong-- 	9	91	0.0	1.0	1.0
198811	97	ANGELL	 But, Frank, the model doesn't say that. 	9	91	0.0	1.0	43.0
198811	98	MORRIS	 I know, I know. 	9	91	0.0	1.0	1.0
198811	99	ANGELL	 The model says the gap is still the other way. 	9	91	0.0	1.0	43.0
198811	100	MORRIS	 I'm just saying that it's very tough to tighten monetary policy, and I wonder whether just occasionally the model may not give us a rationale for not doing what we ought to be doing; that's the only concern I have. Two years of slow M2 growth I think should not under this set of conditions lead us to conclude that we need to be a little less alert to inflation than we otherwise would be; I think that would be a wrong conclusion. I'm not saying you are drawing that [conclusion], but I think there's a danger in being tougher. I remember back in 1975 we had this slow rate of growth of Ml and this was the [period when] monetarism was [gaining prominence]; the broader aggregates were growing very rapidly; Ml was not. And this Committee took a little comfort from the fact that Ml was growing fairly modestly and that comfort turned out to be costly. So I just wonder whether in the short run such a model might lead us as much to error as to success. 	9	91	0.0	1.0	1.0
198811	101	GREENSPAN	 President Parry.  	9	91	0.0	1.0	47.0
198811	102	PARRY	 The example you cited about how [the model may] be useful in the long run really depends upon the actual coefficients that are estimated. In effect, that's how you determine at what rate M2 should grow to get the growth and prices that you find acceptable. The only point I was trying to make--I think this is a correct statistical point--is that to the extent that money is not exogenous, those statistical results can be biased. I don't know if that is a major factor. I don't think you ought to assume that those coefficients are unbiased coefficients because the model starts out with an assumption of the exogeneity which is not there. This may not be a big factor, but I think it is a factor. 	9	91	0.0	1.0	45.0
198811	103	KOHN	 All the coefficients do is give you the dynamic path by which you reach the long-run [unintelligible]. 	9	91	0.0	0.0	999.0
198811	104	PARRY	 Yes. 	9	91	0.0	1.0	45.0
198811	105	GREENSPAN	 President Melzer. 	9	91	0.0	1.0	47.0
198811	106	MELZER	 I had a question that I guess would follow what Gary Stern was saying. Some of the work done prior to the early 1980's would have indicated greater explanatory powers in some of the narrower aggregates. I gather they are not candidates for this type of approach because of the instability in their velocity over time. Is that the assumption? 	9	91	0.0	1.0	42.0
198811	107	KOHN	 Well, that's what made M2 attractive from this perspective. In theory there's no reason why you couldn't specify a long-run path for Ml velocity and feed that into the model in terms of its long-run path. I think it [would have] been more effective [before] deregulation. It's not clear to me that M2 hasn't, but Ml certainly has. and that path Is certainly not flat. So it loses this with the simplicity or elegance perhaps of this model. But in theory if you knew the long-run path for Ml velocity, there is no reason why you couldn't put that in for P* over time. 	9	91	0.0	0.0	999.0
198811	108	PORTER	 We ran the base and Ml and we didn't get the kind of result that they got with that model. 	9	91	0.0	0.0	999.0
198811	109	MELZER	 Yes. 	9	91	0.0	1.0	42.0
198811	110	GREENSPAN	 Any further questions or comments on this before we go further? If not, I'll call on Mr. Cross. Thank you very much, Mr. Porter. 	9	91	0.0	1.0	47.0
198811	111	CROSS	 At the last FOMC meeting, we reported that the dollar's  long summer rally seemed to have either stalled or was ending.  Indeed in late September, market sentiment began to turn  distinctly negative toward the dollar and it has remained  negative ever since: At the peak of the summer rally, the dollar  stood at Y 137 against the yen and DM 1.92 against the mark. It  is now trading around 7 to 8 percent below these highs.  The upward pressure on the dollar that we were seeing  in mid-September reflected several factors. International  adjustment seemed to be proceeding, and the substantial narrowing  of the United States trade deficit announced at that time was an  encouraging sign. Also economic growth in the United States  appeared to be continuing at a strong pace that could lead to  tighter monetary policy and higher interest rates. The market  appeared to be looking for the top to the dollar and was testing  the authorities' intentions. On several occasions traders had  seen the central banks intervening to restrain the dollar's rise  against the mark as the dollar approached the DM 1.90 level. But  when the G-7 met in West Berlin on the weekend prior to September  26, and submitted a communique which contained no precise  reference to the dollar exchange rate, some market participants  jumped to an erroneous conclusion that either a new, higher range  for the dollar had been established, or that the G-7 could not  reach agreement on the desired range. Thus on September 26, the  dollar moved to its highs of the intermeeting period, touching DM  1.89 against the mark and Y 135 against the yen.  On that day, in order to calm and reassure the market,  and to show that the G-7 had not changed its exchange market  objectives, the central banks intervened in an open and concerted  manner. The United States authorities initiated this round with sales of  $100 million against marks, and the Bundesbank and others quickly  followed with dollar sales of their own. The pressures quickly  subsided and the dollar eased back. When these operations were  followed by statements by various officials that pointed to the  economic risks of a further dollar rise, the dollar eased  further.  From late September, the dollar has continued to  decline, a move prompted by various releases indicating that United States  economic activity was not expanding as vigorously as had been  thought, and suggesting that upward pressure on dollar interest  rates might subside. The report in early October of a smaller-  than-expected increase in employment, and the more recent report  on third quarter GNP contributed to this view. Furthermore, the  weakening of oil prices was seen as relatively more beneficial to  our major trading partners, especially Japan, than to the United  States, and that was a short-term negative for the dollar.  Concerns about the pace of our external adjustment also came to  the fore, concerns that were heightened when the latest trade  figures were released in mid-October showing that the United States trade  deficit had widened to more than $12 billion in August. All  these developments tended to move the dollar lower over the past  month or so.  As the dollar has moved down, its decline against the  Japanese yen has become a matter of particular concern. Last  summer, when the dollar was rallying, it did not rise nearly as  much against the yen as it did against the mark and other  currencies. But now that the dollar is falling, it has declined  by at least as much against the yen as against the mark and other  currencies. Looking at the movements over a longer period of  time, today the dollar in terms of the mark is only 2 percent  below its level at the time of the Louvre, but in terms of the  yen it is 18 percent below the Louvre rate, although there has  been much more intervention to support the dollar against the yen  than against the mark.  Part of -the yen's rise represents a strengthening  against all currencies. This strengthening reflects the market's  favorable assessment of the Japanese economy's progress in  adjusting to its external imbalance and shifting from external to  domestic demand --a record that looks much better than that of  Germany and other European surplus countries. It also reflects a  market view that Japan is expected to absorb a relatively large  share of the total international imbalance.  Given the extent of the dollar's recent fall against  the yen, and the concern that at some point it might trigger  massive dollar sales and hedging by Japanese institutional  investors, the market has been fishing to see what level in the  dollar yen would provoke the central banks to respond.  Yesterday, when the dollar fell to 124-1/2 yen, the Bank of Japan  intervened, buying and our Desk followed with $200  million, bringing the rate back to 125.65. At present, concerns  about central bank intervention seem to be a significant factor  in keeping the dollar from sliding further, particularly in this  pre-election period. Also interest rate differentials have moved  a bit more favorable to the dollar. The Bank of Japan is  allowing seasonally slack demand in the Japanese money markets to  show through, and this slight easing is relieving upward pressure  on the yen, as well as facilitating a move towards more flexible  management of domestic markets. In Germany there have also been  some changes in the Bundesbank's procedures for supplying  liquidity to its domestic money market, but the Bundesbank does  not appear to be easing credit even though long-term interest  rates have declined. Looking ahead, market sentiment toward the  dollar remains negative, as participants assess the prospects of  early and forceful action by a new Administration to deal more  fundamentally with our budget and trade deficits.  Mr. Chairman, I would like to seek the Committee's  approval of our operations during the intermeeting period. We  sold $200 million against marks, $100 million on September 22 and  $100 million on September 26 to resist upward pressure on the  dollar, and yesterday we bought $200 million against the yen, to  resist downward pressure on the dollar. Half of the total $400  million was sold on behalf of the Federal Reserve and the other  half for Treasury. In other operations, we purchased $500  million equivalent of Japanese yen from  divided equally between the Federal Reserve and the Treasury.  Also during the period, the National Bank of Yugoslavia repaid  the outstanding $33.8 million of its swap agreement with the United States  Treasury which was scheduled to mature on November 30, 1988.  I would also like to seek the Committee's approval of  renewing the Federal Reserve swap agreements with other central  banks and the BIS, all of which mature in December. Aside from  some earlier swap drawings by Mexico, these facilities have not  been drawn on for several years, by either the Federal Reserve or  any of the counterparties, and they cannot be drawn except by  reciprocal agreement at the time of a request. Nonetheless it is  important to keep these facilities in being in the event of need.  I recommend extension for a further period of one year, without  substantial change. 	6	61	0.0	0.0	999.0
198811	112	GREENSPAN	 Questions for Mr. Cross? 	6	62	0.0	1.0	47.0
198811	113	HELLER	 Can I make a comment? 	6	62	0.0	1.0	46.0
198811	114	GREENSPAN	 Sure. 	6	62	0.0	1.0	47.0
198811	115	HELLER	 You know the dollar is falling, and it's now [blamed] on the weak United States economy. Late last year, the dollar was falling and it was blamed on the strong United States economy because it meant that more imports were being sucked into the country and therefore the  dollar had to go down. I'm getting a little confused, not by what Mr. Cross was saying but by the way the world is reacting. One day undoubtedly the dollar will be falling, and we will be called upon to tighten policy which undoubtedly will send the economy a little bit further down, and presumably the dollar will go up. 	6	62	0.0	1.0	46.0
198811	116	BLACK	 But not necessarily. 	6	62	0.0	1.0	7.0
198811	117	CROSS	 I don't think the expectation in the market is that the economy is very weak. I think that they had been expecting and thinking that it was growing a lot more robustly and that that was going to lead to higher interest rates and was yielding some upward pressure on the dollar. That was the prevailing attitude in which the various statistical releases [came out] all suggesting that the growth is not so robust. And so they are reassessing that. 	6	62	0.0	0.0	999.0
198811	118	HELLER	 It's probably the differential between the two larger-- 	6	62	0.0	1.0	46.0
198811	119	CROSS	 Different things prevail in these markets at different times, but that seems to be a very important factor. 	6	62	0.0	0.0	999.0
198811	120	HELLER	 Probably it's the differential between the two that counts, right? 	6	62	0.0	1.0	46.0
198811	121	CROSS	 That's right, as much of this is based on what they had been expecting. 	6	62	0.0	0.0	999.0
198811	122	GREENSPAN	 President Hoskins. 	6	62	0.0	1.0	47.0
198811	123	HOSKINS	 My concern is not a new one to this Committee, but I think it has been portrayed rather well in this last month. We have been in on both sides of the market which gives an impression that we know what the right exchange rate is. I don't feel comfortable that I know what the right exchange rate is, and I'm not sure anyone around this table does. If Peter Sternlight were to go in on both sides of the market we might have trouble with that, although he does that on occasion when we ask him to. I think we run the risk of setting up the public and ourselves for a nice fall in the dollar simply based on expectations. If the belief is we're going to stabilize the dollar until the election is over with and [unintelligible] tell you about market reaction after the election. My concern is broader than just that particular issue. It's that by doing this I think we continue to confuse the public as to what our policy is all about and divert attention from our long-term objective of stable prices. And secondly, I think we run the risk of confusing ourselves as to our abilities to influence exchange rates in an inappropriate fashion. 	6	62	0.0	1.0	49.0
198811	124	CROSS	 Well, as you know, we've been trying to introduce some stability, and I think it's understandable in a period when the dollar is falling about 10 percent that we could be on both sides of [the market with] that sort of exchange rate movements. It's not surprising in a number of European countries [to see intervention on] opposite sides of the exchange markets within a matter of [unintelligible]. We attempt this, it seems to me, not to try to say with a great degree of precision what is the right exchange rate but to say that we are trying to introduce a greater measure of stability.  I think if you look back over the period since the Louvre Accord, there has been somewhat more stability in these exchange rates. And it is of some value, some importance, when you think of the problems that arise if, for example, the dollar should start to fall very rapidly against the yen and trigger responses by all of the present holders of the dollars to try to protect themselves. We have to walk this narrow line between trying to encourage a certain degree of stability and to keep the financing for this deficit occurring until we can move further toward other financing. It seems to me that's the basic policy. 	6	62	0.0	0.0	999.0
198811	125	TRUMAN	 I think the international understandings-- whether the authorities will consider intervention--in fact are part of the framework for international economic cooperation that is designed to deal with common international problems. And there is a considerable [range of] views about how large those problems are and what the price [unintelligible] to be and how effective some various [approaches] are in doing so. But as the major industrial countries [unintelligible] of the growth-driven process try to deal with large imbalances [unintelligible] this process of intervention that we've been involved in will be as noticed as [unintelligible] to the exchange rates over the various parts of that. But the price to this Committee seems to be the more risky case in saying you don't know better, or if you don't know then you can't concentrate or think about it, is the risk that comes along with the accusations of [benign neglect] about United States policy in the past. And you're just watchful. In fact, you'd probably argue that if we are going to solve our financial problems, we're going to have to do so on our own. 	6	62	0.0	0.0	999.0
198811	126	GREENSPAN	 Governor Seger. 	6	62	0.0	1.0	47.0
198811	127	SEGER	 I just want to make sure I heard you right. This is the first time I believe I've heard the election introduced into this analysis of what's going on. 	6	62	0.0	1.0	40.0
198811	128	CROSS	 Well, not really. I think I said earlier that as we moved up toward the election there has been a feeling on the part of a lot of people in the market that the authorities would be particularly careful not to let exchange rates change very wildly, and they succeeded in doing that. 	6	62	0.0	0.0	999.0
198811	129	SEGER	 But I haven't heard us discuss that here in terms of what, in fact, it would be. 	6	62	0.0	1.0	40.0
198811	130	CROSS	 All I'm suggesting is that that is what is in the market. 	6	62	0.0	0.0	999.0
198811	131	SEGER	 Okay. 	6	62	0.0	1.0	40.0
198811	132	GREENSPAN	 That's not our fault. 	6	62	0.0	1.0	47.0
198811	133	CROSS	 I'm a reporter. 	6	62	0.0	0.0	999.0
198811	134	SEGER	 Yes, but I'm just saying that this is the first time I've heard this even. 	6	62	0.0	1.0	40.0
198811	135	CROSS	 It certainly has been a factor in the foreign exchange market for some time.  	6	62	0.0	0.0	999.0
198811	136	CORRIGAN	 It works. 	6	62	0.0	1.0	31.0
198811	137	SEGER	 That they expect some tremendous change after the November. 	6	62	0.0	1.0	40.0
198811	138	CORRIGAN	 Well, it's not so much necessarily that they expect a change after November 8th. 	6	62	0.0	1.0	31.0
198811	139	SEGER	 Well, that's the day of the election. 	6	62	0.0	1.0	40.0
198811	140	CORRIGAN	 But I do think that there has been a large gut feeling in the market for months that authorities would go to rather extraordinary lengths to prevent the dollar from falling on its face. 	6	62	0.0	1.0	31.0
198811	141	SEGER	 Thank you. 	6	62	0.0	1.0	40.0
198811	142	GREENSPAN	 Governor Johnson. 	6	62	0.0	1.0	47.0
198811	143	JOHNSON	 I was just going to make a comment on what Governor Heller said earlier. It's interesting that last year we had the weakness in the dollar, and it appears we had a strong economic situation, stronger than some people saw at the time. I think that led to feelings that the trade deficit wasn't going to improve-- imports were going to be strong--and that policy was going to be geared toward further dollar depreciation to the point of protectionist pressures. So, there was a definite fear, I think, in the market of an orchestrated decline in the dollar and that tended to feed on itself. But this year we have seen something different. The deficit has improved, and the dollar started turning about the time we started seeing trade improvement. And it has improved Consistently up to recently. On top of that were the expectations of rising interest rates because the economy remained strong and everybody anticipated a tightening monetary policy action. Now, you've got a bit of a different perception. I think the markets see the economy as not as strong as expected earlier and believe that rates may not have to go as high as anticipated earlier and that's taking the pressures off the exchange market. And I think they've seen some slowing in the trade improvement. It may be just an aberration, but all of that I think is sort of leading up to a weaker trend in the dollar. I don't know where that takes you exactly, but that is how I would characterize the way things have developed. 	6	62	0.0	1.0	44.0
198811	144	CROSS	 You know, a stronger economy or a weaker economy can lead to all kinds of other things which sometimes lead to strengthening and sometimes to weakness. 	6	62	0.0	0.0	999.0
198811	145	JOHNSON	 There may be some of that [unintelligible] feeling, but there also was a strong feeling that aside from that we'd do anything necessary, or the perception was that we want to maintain dollar stability. It also was a perception that the central bank might be a source of the political cycle, too. I don't know how you weigh those two out. And they could balance each other. 	6	62	0.0	1.0	44.0
198811	146	HELLER	 I think the only thing I meant to say was that we shouldn't overdo it. It's all that Mr. Cross and Mr. Truman were saying earlier also in response to Lee Hoskins. I really agree with the way you present the case. We shouldn't overdo it as far as the  strength of the economy and the dollar are concerned. And I think one very important factor in the current dollar slide clearly was the disappointing trade numbers released a month ago. I'm not sure whether the slide started on that day or roughly a week or--. I think it started a day or two earlier because there were some reports that the numbers were going to be bad. 	6	62	0.0	1.0	46.0
198811	147	JOHNSON	 Well, I think it's a combination of the perception of things; they're all intertwined, with the perceived relatively weaker situation in the economy and the trade numbers are alll tied up together. Although it's hard for me to--. What do the models show when you have a relatively weaker economic situation? I thought you'd get more on the import side than you'd lose on the export side. 	6	62	0.0	1.0	44.0
198811	148	TRUMAN	 You do, but both arguments are indivisible, when put that way in terms of economics. It is true that if the economy is weaker, interest rates go down or may go down and lower the attractiveness of the dollar. But it also is true that if the economy is weaker, then the economy can absorb more aggregate demand [stemming from a] depreciation. So if it were economists who were trading [in the exchange markets], let me put it that way, then [unintelligible] and it may not even be convincing or have anything to do with what we're doing. But at the same time, it would tend to be a motivating force in correcting the trade balance. 	6	62	0.0	0.0	999.0
198811	149	GREENSPAN	 President Morris. 	6	62	0.0	1.0	47.0
198811	150	MORRIS	 Mr. Chairman, I expected the decline in the dollar after the [unintelligible] Treasury issued in the past three months which suggested the improvement in our trade position was fizzling out. We've really been stagnating with respect to any improvement in our trade position in the last three months. Furthermore, we've had an exchange rate in the third quarter which produced a net decline in import prices. Even if you take out the decline in oil prices you have a decline in import prices. Now, I don't see how we're going to make much further progress on the trade deficit unless we have a further decline in the dollar. I think we should intervene to make sure that it's an orderly decline. But it seems to me the evidence is pretty strong that with exchange rates at their third-quarter level we are not going to make much progress in reducing the trade deficit. 	6	62	0.0	1.0	1.0
198811	151	JOHNSON	 How does that fit into your view about inflation? 	6	62	0.0	1.0	44.0
198811	152	MORRIS	 It accentuates it. That's one of the reasons why I have to classify the staff inflation forecast as the best possible scenario. I think the inflation rate in 1989 has got to be higher, but I was going to talk about that later. 	6	62	0.0	1.0	1.0
198811	153	GREENSPAN	 President Keehn. 	6	62	0.0	1.0	47.0
198811	154	KEEHN	 Sam, given the dollar-yen pressure we're experiencing and [unintelligible], are there any changes in the attitudes of the Japanese [investors] over the dollar as an overall issue?  	6	62	0.0	1.0	35.0
198811	155	CROSS	 Well, as the dollar has tended to slide against the yen, we've been hearing more reports of hedging. As they get less confident they tend to hedge more; that's the form it takes, but it has the same exchange rate effect. 	6	62	0.0	0.0	999.0
198811	156	CORRIGAN	 But also there are comments you get from [unintelligible] that suggest that at least in the market there has been a somewhat marked shift in diversifying assets without [unintelligible] at this point. 	6	62	0.0	1.0	31.0
198811	157	CROSS	 We get reports on this. And certainly during some periods this year when the exchange rates appeared to be relatively safe and stable, there was a tendency to shift into the high interest rate currencies by Japanese investors--into the Australian, Canadian, sterling currencies-- 	6	62	0.0	0.0	999.0
198811	158	MORRIS	 I was talking with a visitor from about countries diversifying their reserve assets, and he said that keeps asking why they keep all their reserves in dollars. So we are beginning to hear the kinds of things we heard in 1978-1979. 	6	62	0.0	1.0	1.0
198811	159	CORRIGAN	 It's precisely for those reasons that you've got a mess in these circumstances and huge balances out there that have got to be financed. [Unintelligible.] 	6	62	0.0	1.0	31.0
198811	160	GREENSPAN	 President Melzer. 	6	62	0.0	1.0	47.0
198811	161	MELZER	 Sam, I wanted to try to get an idea. You mentioned the negative sentiment. Is that backed up at this point by large speculation or not? In other words, I would think if there is this expectation out there that you've described about trying to hold things stable until the election that shorts would be covered rather quickly and we could be in the situation where despite the decline we've had, or maybe because of it, that there is not a big short bid in the market. Do you have any sense of that? 	6	62	0.0	1.0	42.0
198811	162	CROSS	 It's very hard to be very precise. You hear what one person says; then you hear three other people. But certainly there is this prevailing concern that as we look forward a few months there are those big problems, and we are going to have a new Adminis tration. That in itself brings a little uncertainty to the situation. Are they going to be able to and will they take actions to deal with these problems? So as you look ahead a few months this is very much on their minds. 	6	62	0.0	0.0	999.0
198811	163	MELZER	 So there's a good deal of short-term vulnerablity? 	6	62	0.0	1.0	42.0
198811	164	CROSS	 I assume that they are acting on the basis of that concern. But it's hard to have any precise numbers. 	6	62	0.0	0.0	999.0
198811	165	MELZER	 Yes. 	6	62	0.0	1.0	42.0
198811	166	GREENSPAN	 President Black. 	6	62	0.0	1.0	47.0
198811	167	BLACK	 Mr. Chairman, I have a lot of sympathy with the view that Lee Hoskins expressed. I have had some reservations about  these swaps ever since we entered into them. It's not that I'm all that opposed to smoothing operations but I felt that they might delay our dealing with some fundamental problems by covering them up for a while. I think it is important to note that foreign affairs are basically an Administration function and the Treasury has primacy in this area. And even if we philosophically don't agree with the kind of intervention we've done--and I think we pretty well [have expressed that] disagreement--we would have to yield to the Treasury on this, just as monetary policy is a function that Congress has delegated the Federal Reserve and the Treasury shouldn't be telling us what to do in those areas. 	6	62	0.0	1.0	7.0
198811	168	GREENSPAN	 Any further questions for Mr. Cross? If not, can I have a motion to ratify the transactions since the September meeting? 	6	63	0.0	1.0	47.0
198811	169	SEGER	 I'll move it. 	6	63	0.0	1.0	40.0
198811	170	CORRIGAN	 Second. 	6	63	0.0	1.0	31.0
198811	171	GREENSPAN	 Without objection. I also need a motion to approve one-year extensions of the swap line agreements. 	6	63	0.0	1.0	47.0
198811	172	CORRIGAN	 So moved. 	6	63	0.0	1.0	31.0
198811	173	SEGER	 Second. 	6	63	0.0	1.0	40.0
198811	174	GREENSPAN	 Without objection. I think it would be useful to have Ted Truman bring us up to date on the Mexican situation. 	6	63	0.0	1.0	47.0
198811	175	TRUMAN	 Thank you, Mr. Chairman. I'll try to be brief. Basically, I have three points. The first is about developments in the last two weeks or so. Over the 11 business days since the announcement of the willingness of the Federal Reserve and the Treasury to develop a short-term bridge loan for Mexico's economic policies, Now, that compares with over the previous two weeks. In the first week, in fact, oil prices remained relatively firm, and short-term interest rates were pushed up by 200 basis points to 45-1/2 percent. Last week oil prices eased, interest rates were left unchanged, and so indeed and I guess we would not be surprised if interest rates rose after today's auction. The second point has to do with where we stand on the documentation for this proposed bridge loan. It is assumed in our review with the Bank of Mexico and the Mexican government that it will involve, as we now envisage the situation, a new special System swap arrangement for $1-1/4 billion on which various amounts would be drawn successively. I would describe successive [drawings] as bridging to various IMF drawings in advance of payments for oil for the strategic petroleum reserve and World Bank loans. Those drawings would [not] be made until the sources of repayment were reasonably assured. And each would go on to--, be made on a new swap line with the Exchange  Stabilization Fund of the same size. The remaining $1 billion of the arrangement would use the existing Federal Reserve and ESF swap lines and We expect to have the technical details fully agreed in a couple of weeks at which time we would ask the Committee for its formal concurrence of those arrangements. The last point would be that Normand Bernard sent out to the Committee a paper by Ives Maroni on Mexico's economic situation and prospects. I hope it was informative, and I'd be glad to respond to any questions. 	6	61	0.0	0.0	999.0
198811	176	GREENSPAN	 I just want to point out that I will be soliciting by telegram your views on the agreement--in a couple of weeks, Ted, did you say? 	6	62	0.0	1.0	47.0
198811	177	TRUMAN	 Well, I'm trying to be optimistic about it. It's a guess. The General Counsel is nodding 'yes' and he's-- 	6	62	0.0	0.0	999.0
198811	178	GREENSPAN	 Yes, I will be soliciting your views immediately upon completion of the negotiations, whenever that may turn out to be the case. Questions for Mr. Truman? 	6	62	0.0	1.0	47.0
198811	179	SEGER	" This is just a fundamental question. The day that this bridge loan was announced in the newspaper, I happened to have breakfast with a Congressman from the House Banking Committee and he said, ""What in the world is the Federal Reserve doing in that? Why would they be involved with the bridge loan?"" And I didn't know how to answer, I'll be honest with you. And then, secondly, there were a couple of articles in the newspaper shortly thereafter that indicated the conditions surrounding this loan were so much different from the bridge loans in the past. I would like comments on both of those. "	6	62	0.0	1.0	40.0
198811	180	TRUMAN	 On the first point, there was some activity in advance; and we, the Federal Reserve, have had a swap line with the Bank of Mexico since 1967. In fact, over that 20-year period the Bank of Mexico frequently has turned to us for short-term bridges and swap drawings, whatever you want to call them. The reasons for that swap line have something to do with the financial, political, and economic interaction between our two countries. 	6	62	0.0	0.0	999.0
198811	181	SEGER	 Well, I guess he thought the Treasury would be involved; I don't think he thought it was inappropriate for the country. 	6	62	0.0	1.0	40.0
198811	182	TRUMAN	 No. Well, traditionally the swap network was a Federal Reserve operation. It is true that the Treasury has a swap line too, but in every case going back at least as long as I've been here these operations have been joint and/or the Federal Reserve has has been in there alone in some smaller, less dramatic circumstances, We have increased the swap line to show support, to allow them to borrow over an election period, whatever it might be, to provide some degree of financial support. On the second point, I think it's particularly difficult to generalize about bridge loans. At the broadest level, this operation is not any different from any of the other ones that we've been involved in over the last six years. We have identified a means of repayment of our swap; and once that's identified, we are reasonably sure that we are going to get repaid.  20- The issue which I think is found in the press was more in the context of loans that Mexico may receive from the World Bank than a full-fledged IMF program. That issue really turns on a judgment as to how serious Mexico's current economic problems are, which I would argue in turn depends on one's forecast for oil prices. If oil prices go down a lot, Mexico is going to have to take another strong dose of adjustment to another terms-of-trade shock. And that necessarily is going to involve a full-fledged IMF program. If oil prices stay where they are or go up some from where they are, it's less clear that they will need the kind of international financial support that is associated with IMF programs, and they more appropriately can look to further longer-term, development-oriented financing that comes out of World Bank loans. So, it's a question of how you see Mexico and its economic situation with regard to the extent to which the particular financing or bridging is oriented more toward the Fund or more toward the World Bank. 	6	62	0.0	0.0	999.0
198811	183	SEGER	 Thank you. 	6	62	0.0	1.0	40.0
198811	184	MORRIS	" The term ""bridge loan"" has taken on connota tions that it didn't use to have. "	6	62	0.0	1.0	1.0
198811	185	SEGER	 Yes. 	6	62	0.0	1.0	40.0
198811	186	MORRIS	 It seems to me it ought to be a term that we avoid because it now means in the financial press highly speculative loans undertaken in connection with leveraged buyouts. 	6	62	0.0	1.0	1.0
198811	187	SPEAKER	 Well, maybe this is what we're talking about! It doesn't look too great, like the economy Certainly not too great any more. Real estate gets it, too. 	6	62	0.0	0.0	999.0
198811	188	FORRESTAL	 Mr. Chairman, I hope President Morris isn't suggesting that we buy Mexico. 	6	62	0.0	1.0	39.0
198811	189	SPEAKER	 We've bought it! 	6	62	0.0	0.0	999.0
198811	190	FORRESTAL	 Ted, in the memorandum there's a discussion of capital movements. Has there been any change in that situation? Has there been more capital flight in the last few days? 	6	62	0.0	1.0	39.0
198811	191	TRUMAN	 I think it probably has been less. Capital flight is very difficult to identify even ex post, much less while it's going on. As far as we can tell, some private sector entities in Mexico have various kinds of arrangements by which as of certain dates they can obtain dollars from the Bank of Mexico and they have the option to do so. And they have opted in the last couple of weeks, especially last week, to make use of those options. In a number of cases they have been using them either to go out and retire some of their own debt at a discount, which you may want to call capital flight, or to invest in something, or to buy Mexican public-sector international debt which they are using themselves for their participation in some certainly-  of the privatization efforts that have been going on in association with this general effort. Those are part of the debt-equity swap--if you want to put it that way--mechanism. And as far as we can tell, most of the [official] sales of dollars over this period--the last week--seem to be associated with those kinds of operations rather than a sort of a run on the peso. The general financial market conditions have been quite calm. That has been confirmed by and the Treasury attache. Nevertheless, 	6	62	0.0	0.0	999.0
198811	192	FORRESTAL	 The other thing about Mexico, as I suppose everybody is aware, is that there has been a series of advertisements placed in major newspapers by a committee, I forget what they call themselves, which in effect forecasts civil disobedience, civil disorder in Mexico following, or at the time of, the inauguration of the new president on December 1st. I don't know how widespread those have been circulated, but I've had a lot of questions from people including my directors about that situation and its effect on the bridge loan and the repayment of the bridge loan and the World Bank loan. I don't know, Ted, whether this is giving pause for any concern in Mexico or not. 	6	62	0.0	1.0	39.0
198811	193	TRUMAN	 Well, I've seen it. 	6	62	0.0	0.0	999.0
198811	194	FORRESTAL	 It's essentially a pretty destabilizing kind of-- . 	6	62	0.0	1.0	39.0
198811	195	TRUMAN	 I think the answer is that one can't completely tell, and I'm not sure exactly how that would modify our behavior under that. You were speaking of the behavior of the United States government in general. The behavior under these circumstances--, all I can say is that what I have read and picked up in the last month or so suggests that (a) there was certainly a high level of uncertainty; clearly, that was one of the things, along with declining oil prices, contributing to the problems that they first approached us on. But (b) my sense is that the efforts to, or the probability attached to, sort of destabilization has lessened somewhat. Basically, I'm basing that on an assessment that the [unintelligible] has said the immediate candidate for president seems to be having difficulty organizing a coalition because essentially his opposition has combined a group on the left and a group on the right against a [unintelligible] center treaty faction. And despite his efforts and obvious popular appeal, the efforts can carry through the kinds of demonstrations that were held during the summer [and] immediately after that seemed to have died down somewhat. That's not to say that I wouldn't expect some attempt to disrupt or show dissatisfaction at the time of the inauguration on the 1st of December. In fact, I would be flabbergasted if that did not happen, but I don't think anybody feels that this is life threatening, if I can put it that way, at this stage. 	6	62	0.0	0.0	999.0
198811	196	GREENSPAN	 President Hoskins.  	6	62	0.0	1.0	47.0
198811	197	HOSKINS	 I have a longer-term concern with this arrange ment other than just the current bridge loan, although I have some concerns about that. The Fed has swap lines with what, the G-10, BIS, Switzerland, and Mexico. 	6	62	0.0	1.0	49.0
198811	198	TRUMAN	 And Denmark. 	6	62	0.0	0.0	999.0
198811	199	HOSKINS	 Denmark. Okay. Then, I would say there probably are two outliers in that group--Mexico being a clear one. The concern I have over time is that we're going in on these arrange ments with an Administration--whether it's this one or the next one down the road--that is, through Treasury. And it seems to me that over time, given I think what the paper pointed out that Mexico needs $3 to $5 billion per year for the next several years, with the drying up of private resources I think we could expect more of this kind of activity. The concern is that we would be subject to being viewed as perhaps circumventing Congress by working more closely with Administrations down the road on this kind of activity. In that sense, I don't think it's appropriate to continue those kinds of relationships because I think it risks the political independence of this body to some extent. That's my longer-term concern. As for the shorter ones, I'll wait until I see what you are going to put in your telegram. 	6	62	0.0	1.0	49.0
198811	200	GREENSPAN	 Any further questions for Mr. Truman? If not, let's move on to the Domestic Desk. Mr. Sternlight. 	6	62	0.0	1.0	47.0
198811	201	STERNLIGHT	" Since the September 20 meeting of the Committee, the  Domestic Desk has sought to maintain about the same reserve  pressures sought in the previous intermeeting interval. Where  that previous interval was notable for achieving very closely  both the expected levels of borrowing and of Federal funds rates,  the recent record has been more spotty. Borrowing bulged very  sharply at the end of the reserve maintenande period that  concluded just as the new intermeeting interval began and that  lifted average borrowing in the September 21 reserve period  nearly $300 million above the $600 million path level. In the  closing days of that reserve period, we had hesitated to add  reserves as aggressively as reserve projections suggested might  be needed, since the money market was rather comfortable and  there was market speculation that policy might be easing.  In the October 5 reserve period, borrowing averaged  about $550 million until the final day, when another bulge lifted  the full period average to $735 million. The bulge reflected  heavy demand for excess reserves and some missed estimates of  reserve factors. Meantime, reflecting the tight close of the  previous period and quarter-end pressures, the funds rate  averaged around 8-5/16 percent in that period as against the  8-1/8 percent average characteristic of the previous intermeeting  interval.  With this experience behind us, we sought in the  October 19 reserve period to keep up well with reserve needs and  even resolve uncertainties a bit on the accommodative side.  Borrowing slipped off to an average of about $525 million, but  funds stayed toward the high side of their expected range,  averaging about 8-1/4 percent.  We've continued in the current reserve period to meet  projected reserve needs in a relatively forthcoming manner,  seeking to head off some market speculation that the system might  be tightening a bit. Borrowing has remained below the $600  million path level, averaging about $415 million through  yesterday, but Fed funds have continued to hug the upper end of  the expected range, averaging a bit over 8-1/4 percent.  It is not altogether clear why the money market has  persisted on the firm side even when nonborrowed reserve targets  have been fully met or exceeded. To some extent the end of  period bulges in borrowing probably made money center banks more  reluctant to use the window. Possibly the decline in seasonal  borrowing since late September played a role, and perhaps there  were other factors tending to shift reserve distribution in a  manner that led to reduced window use.  In any event, it appears that market participants have  more or less accepted the idea of a funds rate around 8-1/4  percent, not attributing real policy significance to the change  from the earlier 8-1/8 percent level. Some feel that the rate  could well drift back again toward 8-1/8, or even 8 percent,  without implying much policy significance, while others say that  the recent slightly firmer level might well continue in coming  weeks, especially as we enter the year-end period. Given the  indications of slower economic growth, fewer voices are heard on  the side of expecting further deliberate policy firming in the  near term, but neither can one discern any groundswell toward the  easier side.  Desk operations during the period continued to  concentrate on temporary reserve additions through repurchase  agreements   arranged on all but a few days. Outright holdings  were increased by a modest net of about $335 million as bill  purchases from foreign accounts were partly offset by small  agency redemptions. On one occasion, matched sale-purchase  transactions were arranged in the market to absorb reserves.  Interest rates showed mixed changes over the period,  edging up about 10 to 20 basis points higher at the short end but  declining some 15 to 30 basis points for longer maturities. For  short maturities, the firmer money market and related higher  financing costs were a factor. For some instruments in the 3-  month area the switch to 1989 maturities tended to lift rates.  The Treasury auctioned 3- and 6-month bills yesterday at average  rates of 7.37 and 7.48 percent compared with 7.17 and 7.34  percent just before the last meeting. While continuing to raise  new money in weekly bill issues, the Treasury also redeemed $10  billion of cash management bills on September 22, leading to a  net decline of about $3 billion in bills for the period.  The lower rates on longer maturities emerged as market  participants saw business news as mainly on the moderating side,  while lower oil prices were also a significant factor. The  September employment report in early October was a particular  focus of attention. The market was impressed with the downward  revision of payroll gains in August as well as the smaller than  expected September rise and the consecutive declines in  manufacturing payrolls in August and September. Wage gains muted  the market's enthusiasm, however. The weaker dollar also was a  sobering influence on the market, especially after the large  August trade deficit was reported in mid-October. The modest  pace of monetary growth got a bit more attention than in recent  months, especially after it was noted that the Fed's policy  record had moved up the emphasis on this factor a bit. But the  impact of money numbers on interest rates remained fairly minor.  Meantime, the bond market paid close attention to the  alternately hot and cold prospects for Treasury bond issuance  authority wrapped up in the tax technical corrections bill    with bond prices giving some ground when that bill finally passed  at the eleventh hour. Actually some question still remains as to  whether the Treasury will be able to include a bond in the  financing package to be announced tomorrow, as the enrolled bill  has not yet been sent to the White House.  On balance, the market regarded incoming economic data  as basically supportive of a steady-as-she-goes policy   with  little reason for further firming near-term and perhaps even less  for overt easing steps at this point. Looking further out the  time horizon there is probably a bit more anticipation that the  need may be for more rather than less restraint as there still is  a sense that current relatively full use of resources will  eventually make itself felt in greater price pressures. But  these are not generally seen as immediate concerns.  The Treasury raised about $2.3 billion in the coupon  area during the period, with bigger increases on deck as a major  quarterly financing is to be announced tomorrow. Treasury yields  in the 2-year area worked down by about 15 basis points over the  interval, leaving those yields a shade under the Fed funds rate.  More typically, the 2-year rate might be 25-100 basis points  above the funds rate. The long end of the curve also tended to  flatten, with long bond yields down about 25-30 basis points,  narrowing the 2- to 30-year yield spread to just over 50 basis  points.  Looking at other markets, some mention should be made  of FICO bonds, for which the spread over Treasury issues tended  to narrow over the period despite continuing grim news about the  thrift industry. Paradoxically, it appears that the worse the  news on this front, the more the market is convinced that a  Federal bail-out of some sort will be assured for the thrifts.  Also of note, the corporate market was shaken during  the period by reports of large pending ""leveraged buy-outs"" which  could result in massive issuance of corporate debt and perhaps  some significant downgrading of previously well-regarded issuer  names. At times these developments severely narrowed liquidity  in the corporate industrial bond market   working somewhat to  the benefit of agency and even Treasury issues, as well as to  corporate issues deemed less vulnerable to take-over risk   such  as utilities.  Turning to the Desk's dealer relationships, I should  mention that on September 29, we added two more firms to the list  of primary dealers   County NatWest and Yamaichi. This brought  the total number on the list to 46, an increase of 10 in just the  past two years.  This rapid rise after a decade of rough stability in  the number of dealers   much of it, incidentally, in foreign-  owned dealers   has caused us at the New York Fed to undertake a  basic review of the criteria for designating primary dealers. We  have concluded that several modifications of our approach are in  order, and I'd like to note them briefly for the Committee.  Our chief concerns include the rapid rise in the number  of firms on the list   to the point that the value of additional  trading relationships to the conduct of Desk business is  questionable; our growing discomfort at the way the list is used  as a prestigious ""good-housekeeping"" seal substituting for normal  market-based judgments in selecting counterparties; and a sense  that the process of striving to meet our market-volume standards  sometimes generates 'churning' activity that serves little useful  purpose.  In response to these concerns   though without  imagining we can readily solve them all   we have in mind the  following changes:  First, we plan a modest strengthening of our market-  making standard, placing more emphasis on quality of  business done and on evidence of ability to operate  profitably over time   and we'll be looking for a  primary dealer to do at least 1 percent of total  customer business of all the dealers rather than the  3/4 of 1 percent norm used recently;  second, while still emphasizing the need for capital in  relation to risk exposure we plan to raise suggested  minimum capital from $25 to $50 million   in effect  incorporating what virtually all the dealers have  already attained anyway;  third, we plan to add quality of trading performance  with the Desk and other customer services to us, as a  more explicit criterion in evaluating whether a dealer  should remain on the list;  fourth, we plan to set a flexible limit of around 50 on  the number of primary dealers, which would mean being  more selective as we approach this point and being  willing to consider dropping relationships with  marginal performers while remaining open to adding well  qualified new firms;  fifth, we plan to follow a policy on changes in  ownership that makes it very clear that the primary  dealer designation is not a readily transferable  'franchise'   new ownership will have to be evaluated  and there will be a strong presumption that the  designation will be discontinued, at least temporarily,  when a firm sells just its Government dealer business;  and  sixth, with particular reference to foreign ownership,  we plan to take account of the recent trade legislation  as well as including our previously stated intention to  give some weight to ""geographic concentrations"" in  considering changes in the list.  Some of these steps, I think, are quite modest and non-  controversial. Others   including the 'flexible' limit of  around 50 firms, the more rigorous look at ownership changes, and  our geographical concerns   could touch more sensitive nerves.  Taken together, while not resolving all our concerns, we think  these steps can help deal with the pell mell growth in numbers,  the sometimes aggressive foreign interest and the difficult  situations posed by ownership changes.  We expect to incorporate these changes in a guideline  to be shared with the dealer community within the next few weeks,  and sent to Committee members before that. The particulars of  the change should be considered confidential until the new  guideline is distributed to the dealers.  Leeway  Finally, Mr. Chairman, I'd like to request a temporary  increase in the normal intermeeting leeway for changes in  outright holdings in the System Account. After several months of  rather modest growth in our holdings of securities   in part  because reserve needs were met through acquisitions of foreign  currency and a rise in extended credit   big seasonal reserve  8  needs will catch up with us in the next several weeks. The main  factor is expected to be increased currency in circulation,  boosted to some extent by higher required reserves. To be on the  reasonably safe side I recommend an increase in the usual $6  billion leeway up to $10 billion until the next Committee meeting  date. "	6	61	0.0	0.0	999.0
198811	202	GREENSPAN	 Governor Johnson. 	6	62	0.0	1.0	47.0
198811	203	JOHNSON	 I think all those criteria for primary dealer ships sound good except for two that Mr. Sternlight mentioned--the number limitation and the geographical. I assume that's just politi cal reasoning on your part, but I can't see any other reason why you have those. Maybe that's the right thing to do but that seems to invite criticism from parties that are perfectly qualified except for the fact that you've hit the number limit and the fact that they may be concentrated in some geographical region. I'm not sure why you'd argue you are excluding by the limit basis. 	6	62	0.0	1.0	44.0
198811	204	STERNLIGHT	 I don't think it's a question of excluding any particular firms from a particular country that meet our criteria. I think the political concerns that arose probably sharpened our sensitivity to the issue, but I think speaking from my own view of it anyway I do have a concern at least about the rapidity of the growth in representation from some particular corners of the globe. 	6	62	0.0	0.0	999.0
198811	205	JOHNSON	 But I'm saying if you can insure these other criteria, which I think are good criteria, why would you use those other factors? If they are perfectly qualified by those criteria, why would you impose these quotas? 	6	62	0.0	1.0	44.0
198811	206	STERNLIGHT	 Just because I have a concern about the relatively aggressive pace of entry, and this is a way of slowing down that relatively aggressive pace of entry from a particular foreign sector in my mind.  	6	62	0.0	0.0	999.0
198811	207	CORRIGAN	 Let me respond to that, Manley. 	6	62	0.0	1.0	31.0
198811	208	JOHNSON	 Sure. 	6	62	0.0	1.0	44.0
198811	209	CORRIGAN	 I think, first of all, the two things shouldn't be written together. To some extent, the flexible limit of 50 is a straight-forward business decision in terms of how many people the Desk can with some efficiency do business with. There's simply no need from a straight-forward business point of view for a group even as large as 50. So, to some extent the 50, flexible 50 if you will, is dictated on straight-forward business grounds rather than any other grounds. 	6	62	0.0	1.0	31.0
198811	210	JOHNSON	 It seems like a way to do that would be just to tighten your criteria further. 	6	62	0.0	1.0	44.0
198811	211	CORRIGAN	 Now, the problem is that you will have situations, I think, in which unless you had some notion of some kind of a cap where there is no conceivable set of criteria that wouldn't end up looking overtly discriminatory toward somebody. I don't see how you can get from here to there. And this point on geographic concentration is not new. We have articulated that in various [unintelligible] or another some time ago. And what we're really trying to say, at least what I'm trying to say, is that we have a situation right now where in round numbers 15 percent of the market is in effect controlled by foreign firms. I have no problem with that. In other words, I do think, that there is a special point--I don't know where it is and I hope we never get to the point where we have to worry seriously about it--but I think there is a threshold point in the market for United States government securities within which one would have problems in substance And I think that all we're trying to do is to send a signal that says conditions could arise in which we might well conclude that enough is enough. As I just said, I don't think we're anywhere near that, but having that principle established is I think a very cautious approach. But it's one that we should do because again I can't think of a series of criteria that could be administered even-handedly that could in and of themselves guarantee that that condition might not arise in the future. 	6	62	0.0	1.0	31.0
198811	212	HELLER	 But your 1 percent market limit must limit it to some extent, even to less than 50. 	6	62	0.0	1.0	46.0
198811	213	STERNLIGHT	 Well, that may have a very similar impact. 	6	62	0.0	0.0	999.0
198811	214	JOHNSON	 That's what I was getting at. 	6	62	0.0	1.0	44.0
198811	215	HELLER	 Do you have an idea where that-- 	6	62	0.0	1.0	46.0
198811	216	STERNLIGHT	 Right now we have 46 on the list including a couple that would be just on the edge of 1 percent. But they meet it, and over the past few years there has tended to be some giving of ground by firms that had the biggest share. Theoretically, you could have 99 firms doing 1 percent. It won't work that way, but it might work out that it would be very hard to get over 1 percent.  	6	62	0.0	0.0	999.0
198811	217	JOHNSON	 But I'm saying that's the maximum number you can have. 	6	62	0.0	1.0	44.0
198811	218	CORRIGAN	 You still have to worry about acquisitions, though. 	6	62	0.0	1.0	31.0
198811	219	HELLER	 Well, that's different. 	6	62	0.0	1.0	46.0
198811	220	BLACK	 The last two firms would meet all these tests? 	6	62	0.0	1.0	7.0
198811	221	STERNLIGHT	 Yes. 	6	62	0.0	0.0	999.0
198811	222	SPEAKER	 What's the biggest share? 	6	62	0.0	0.0	999.0
198811	223	STERNLIGHT	 I guess about 8 or 9 percent. 	6	62	0.0	0.0	999.0
198811	224	GREENSPAN	 Any further questions for Mr. Sternlight? If not, can I have a motion to ratify the transactions since the September meeting? 	6	63	0.0	1.0	47.0
198811	225	KELLEY	 So move. 	6	63	0.0	1.0	48.0
198811	226	CORRIGAN	 So move. 	6	63	0.0	1.0	31.0
198811	227	GREENSPAN	 Without objection. Also, we need a motion to increase the Desk's intermeeting leeway as requested by Mr. Sternlight. 	6	63	0.0	1.0	47.0
198811	228	SPEAKER	 I'll move. 	6	63	0.0	0.0	999.0
198811	229	GREENSPAN	 Second? 	6	63	0.0	1.0	47.0
198811	230	SPEAKERS	 Second. 	6	63	0.0	0.0	999.0
198811	231	GREENSPAN	 Without objection. We'll now move on to the economic situation. Mr. Prell and Mr. Truman. 	11	11	1.0	1.0	47.0
198811	232	PRELL	 The main innovation in the staff's forecast for this meeting is  the change in our assumption about the oil market. In light of the  continued inability of OPEC to hold to its production quotas, we are now  assuming that oil prices will stay near their recent levels and thus  will run $2 to $3 per barrel lower over the coming year than we had them  in our September projection. Obviously, this pattern is a far cry from  that in 1985-86, when the spot prices fell from $31 to $11. Even so,  the projected near-term decline in energy costs could provide the  Committee with a little breathing room by temporarily offsetting   or  perhaps I should say, masking   any underlying tendencies there may be  toward a further pickup in overall inflation.  As you know, it is still our assessment that additional policy  restraint probably will be needed over the coming year in order to ease  pressures on resources sufficiently to turn basic wage and price trends  back in a disinflationary direction. However, because energy prices  will be damping inflation in the short run, we've built a more gradual  interest rate increase into our current forecast. The federal funds  rate still rises another point or so, but this occurs over the next year  rather than over the next six months, as in our previous projection,  The incoming data since the last meeting have provided some  indications that a movement toward a sustainable pace of expansion may  be in train. However, just as even a few swallows may not signal the  onset of spring, so must we be careful not to read too much into a few  observations in noisy economic time series.  Perhaps looming largest among the recent signs of slowing is  the Commerce Department's advance estimate of third-quarter GNP growth.  Commerce gauged the increase in output, abstracting from drought  effects, at 2-3/4 percent, at an annual rate; this is more than a  percentage point below the pace of the second quarter, and more than 3/4  of a point below the pace of the first half as a whole. We read the  available information in essentially the same way, but there still are  many gaps in the data for the third quarter, and the apparent  deceleration certainly can't be said to meet statistical standards of  significance at this point.  It is clear that we must look for supporting evidence, if we  are to have any confidence that a slowing has in fact occurred. One  place to look is in the labor market data. In this regard, it may be  noted that the unemployment rate averaged 5-1/2 percent in the third  quarter, the same as in the second quarter; given our assessment of the  growth trend of potential output, this would imply that real output  growth should indeed have been in the vicinity of 2-1/2 percent.  Moreover, looking beyond the quarterly aggregation, the recent  monthly labor indicators suggest some moderation in the pace of  expansion. Private payrolls increased an average of 120,000 in August  and September, as compared with 300,000 per month earlier in the year.  Especially striking was the decline in factory jobs. Some other  evidence, drawn from household and business surveys, also can be  mustered to support the notion that growth in labor demand may have  eased somewhat over the summer.  But, again, I think a note of caution should be sounded. Some  of the month-to-month patterns may have been affected by weather  conditions or by the strong demand conditions that resulted in less than  seasonal plant shutdowns in July and thus smaller than seasonal  increases in labor use thereafter. Moreover, claims for unemployment  insurance have been running very low in recent weeks, and are a factor  leading us to anticipate some bounceback in private employment growth in  October.  Similarly, although one can spot signs in the recent monthly  expenditure data of a tailing off in the expansion of aggregate demand,  these indications, too, must be regarded as rather tentative. Non-auto  retail sales were estimated to be flat in nominal terms in the advance  report for September. When combined with a drop-off in electricity use  and an easing in the pace of motor vehicle sales, this produced the  Commerce Department's estimate of a one-half percent decline in total  real consumer outlays in September.  The arithmetic of such a low jumping-off point would be that  the current quarter is likely to see a decidedly smaller gain in  consumer spending than the strong 3-1/2 percent rate registered in the  third quarter. On the other hand, when one recognizes the susceptibility of these numbers to subsequent revision, and also their inherent  volatility, this arithmetic argument becomes less compelling. All  things considered, we have in fact projected a substantial slowing in  real consumption growth in the fourth quarter, to an annual rate of  about 2 percent. The slower pace of domestic car sales in the first 20  days of October fits with this outlook.  Another set of data taking on a less robust cast of late is  orders for nondefense capital goods. These fell sharply in September,  more than reversing a surge in August. However, while the demand for  office and computing machines has softened since the spring, new  bookings and order backlogs for other equipment have maintained a strong  upward trend. At this point, it therefore seems reasonable to expect  that real outlays for producers durables will be rising substantially  into 1989. In contrast, on the structures side, the outlook looks to be  one of gradual decline in investment, owing in part to the expected  slide in oil drilling.  The final major area of apparent softening in the monthly  figures is merchandise trade. The trade deficit bounced up again in  August, prompting some private analysts to express concern that the  trend of improvement, which had been very sharp in the first half, may  have come to an end. In our view, the data more likely are symptomatic  only of a moderation in the rate of improvement, attributable in part to  the waning influence of earlier dollar depreciation. We expect that  real net exports will be a small but clearly positive contributor to  output growth in coming months.  To close out the review of recent developments in private  demand, I should mention briefly the picture in the housing market.  Housing starts have been essentially flat since the spring, but sales of  single-family homes have been relatively brisk of late. With rates on  fixed-rate mortgages having dropped noticeably since August, we think  housing demand should remain firm in the near term rather than being  the negative factor we had anticipated previously.  To sum up, our sense is that growth in private final demand  probably has moderated, but that it is by no means collapsing.  Moreover, inventories appear to be lean on the whole, and no impediment  to further expansion in industrial production. Indeed, the leanness of  stocks is one factor supporting what will be a significant boost to  activity in the current quarter from higher auto assemblies; we've  allowed for a substantial shortfall from the manufacturers' aggressive  schedules, but car production still accounts for one-half percentage  point of the 2-3/4 percent drought-adjusted GNP increase we've forecast.  Looking ahead, we are projecting a gradual deceleration in  nonfarm output, with real GNP growth leveling out at around 2 percent,  under the influence of further increases in interest rates. On a  general analytical level, the case for higher interest rates can be  stated fairly simply: in the absence of greater fiscal restraint or a  serious inventory overhang, and with the dollar assumed to depreciate  moderately, there is no other obvious macro force to push growth below  long-run potential and hold it there for a while. We don't believe the  lagged effects of the rate increases to date will be sufficient to do  the trick.  We continue to think that such a slowing is necessary to fight  inflation, even though there have been a few favorable wage and price  data of late. In particular, even with due allowance for statistical  uncertainties, the employment cost index increases between June and  September were smaller for private workers than those in the first half,  and they produced a leveling in the 12-month percent changes. These  figures have prompted us to shave a hair more off of our wage forecast  than would have been dictated by the energy price effects alone, but the  uptrend still is intact and we are looking for a bit of acceleration  over the coming year.  A similar   and related   upward tilt is visible in our  projection of price inflation outside of food and energy. Recent data  have presented a mixed picture, with producer prices showing some  sizable increases while consumer prices have been buffetted by gyrations  in prices for such items as apparel, lodging, and tuition   all of  which are subject to questionable seasonal adjustment. As we noted in  the Greenbook, we expect the CPI ex food and energy to rise almost 5  percent next year, versus the 4-1/2 percent rate recorded thus far this  year, owing to the general tightness of markets.  One might argue from survey and anecdotal evidence that 4-1/2  to 5 percent inflation is becoming ingrained in peoples' thinking as  something of a norm. The publication of monthly indexes in that range  produces headlines that inflation remains moderate and is of no concern.  If this is the state of psychology, it seems unlikely that we shall see  a resumption of the earlier downtrend in inflation without the opening  of some greater degree of slack in labor and product markets than we've  had in the past year. 	11	11	1.0	0.0	999.0
198811	233	TRUMAN	 A number of changes have been introduced into the  staff's outlook for United States external accounts since the September  Greenbook. The net result of these changes has been to leave our  projection of the nominal United States trade and current account  deficits at the end of next year essentially unchanged from the  previous projection, at annual rates of about $90 billion and  $105 billion respectively. However, the projected improvement in  real net exports of goods and services and the associated  contribution to real GNP over the forecast period have been  reduced by about 10 billion 1982 dollars.  The major reason for the discrepancy between the  changes in the nominal and real projections is the assumption of  lower oil prices, described by Mike Prell, which generates a  terms-of-trade gain. Lower oil prices improve the oil trade  outlook by about $6 billion in nominal terms. At the same time,  the outlook is worsened in real terms by about 4 billion 1982  dollars as a consequence of reduced domestic production and  higher domestic consumption of oil induced by lower oil prices.  Our assumption about oil prices is based on a view that  following its meeting later this month OPEC will restrain their  crude oil production to less than 20 mb/d, compared with  production at more than 21 mb/d currently. If output were to  remain at the recent rate, we would expect the price of imported  petroleum and products to decline to below $10 per barrel,  compared with the $13 per barrel in our forecast. If production  were cut to 18.5 mb/d   still, 1 mb/d higher than in the  previous OPEC arrangement on quotas   the price would be  expected to rise above $15 per barrel.  Based on our assessment of recent indicators for the  third quarter and in view of lower oil prices, we have raised our  forecast for growth in foreign industrial countries by about 1/4  percent for both this year and next year, which tends, other  things being equal, to increase demand for our exports. Most of  the upward revision was in growth in continental Europe.  However, we still believe that growth in the foreign industrial  countries as a group will decelerate from about 2-3/4 percent  over the four quarters of 1988 to about 2-1/4 percent over the  four quarters of next year under the influence of fiscal and, in  some countries, monetary restraint.  We have also incorporated into this forecast the lower  foreign exchange value of the dollar we have experienced in  recent weeks, while leaving the level of the dollar in the fourth  quarter next year the same as in the September Greenbook. At the  end of 1989, this modification tends to produce a small  improvement in our external balances in both nominal and real  terms, though the effect essentially would be washed out if we  extended our forecast into 1990 with no change in the dollar  beyond the end of 1989. I would note, however, that the balance  of risks in this forecast may have shifted toward greater  downward pressure on the dollar than that projected.  We have made a number of adjustments to the forecast in  light of our assessment of recent information. These have had  the effect of offsetting some of the positive factors I have just  described. We reduced marginally our optimism about the rate of  expansion of United States exports of business machines because of an  apparent slowing of new orders. However, such exports are still  expected to increase in real terms at an annual rate of about 30  percent. We also reexamined our outlook for the quantity of  non-oil imports, and increased it somewhat especially in the near  term.  As noted by Mike Prell, the most significant change  in our outlook has been with respect to oil prices. In this  connection, it might be helpful to the Committee if I summarized  our assessment of the implications for economic policies in  foreign industrial countries of lower oil prices, either those in  our forecast or even lower prices that might result from a  failure of OPEC to restrain production. Our best judgment is  that policies abroad are likely to be only marginally affected by  lower oil prices.  This judgment is based in part on an assessment of the  1986 experience and involves three considerations. First, the  direct effect of lower oil prices on consumer price inflation  abroad is small, smaller than in the United States, because  production is, in general, less energy-intensive and a larger  component of the price of energy is made up of taxes. Thus, the  dividend of reduced inflation pressures is lower.  Second, the amount of unutilized capacity abroad is  smaller than in 1986. Thus, policy authorities in some countries  would be inclined to welcome the anti-inflation dividend. This  is especially true in Canada and the United Kingdom. Indeed, in  those countries the direct stimulus to domestic demand from lower  energy prices may itself be unwelcome and could lead to tighter  monetary policies.  Third, with a less inflationary environment, the  Bundesbank might be expected to allow somewhat lower nominal  interest rates as long as its monetary target is being met;  however, the Bundesbank's target has been exceeded for three  years in a row, and it is likely that the Bundesbank would want  to be sure of making its target before allowing interest rates to  decline very much. Such cautious behavior by the Bundesbank is  likely to constrain the French authorities.  On the other hand, the Italian authorities might be  inclined to follow a somewhat easier fiscal policy or to  substitute higher energy taxes at the consumer level for  restraint in other areas; the Japanese authorities might ease  monetary policy somewhat especially if lower oil prices were  accompanied by a significantly stronger yen.  That concludes our report, Mr. Chairman. 	11	11	1.0	0.0	999.0
198811	234	GREENSPAN	 Questions for either gentleman? 	12	12	1.0	1.0	47.0
198811	235	JOHNSON	 I just have one question that bothers me a little. Those were good explanations, but one basic thing bothers me about the Greenbook forecast. I've mentioned it before. I'll refer to it again. What bothers me is the fact that we put short-term rates up about 1-1/2 percent--the federal funds rate. Yet long-rates are lower today than when we started that tightening move. The Greenbook assumes sort of a parallel shift in rates. And yet the economic data that we've seen, even though I think close to the Greenbook forecast, are definitely slower than what I would have anticipated at this level of interest rates, especially long rates. I'm having trouble accounting for that. How would you reconcile that kind of situation-- the fact that your interest rate forecast had one thing in it and yet the economic performance has been even more modest than you may have anticipated because you would have assumed the higher level of long  rates and maybe even a higher level of short rates? I have a lot of trouble reconciling this. 	12	12	1.0	1.0	44.0
198811	236	PRELL	 We wouldn't have expected the lower long rates that we've had to have any significant influence on recent economic performance. So, I wouldn't want to connect those things quite the way I think you were suggesting. It does appear to us that the decline in long rates reflects some reduced concerns about how robust aggregate demand will be and thus what the future pressures will be in credit markets. Our assumption is that if things unfold as we are suggesting they will, there will be an element of surprise for the market. They will, therefore, tend to raise their expectations somewhat about the future course of interest rates. And with such expectations, we will get somewhat parallel increases in long rates as short rates move up. We have trimmed a small fraction off our long- rate increase over the coming year, in part expecting that the better price performance will be extrapolated to some degree. But basically we don't perceive that the real rate movements that have been implied by the recent nominal rate behavior are going to be imposing sufficient restraint over the coming year to keep the economy in check in the way that the markets may now be anticipating. 	12	12	1.0	0.0	999.0
198811	237	JOHNSON	 I guess what you still haven't quite dealt with--I'm trying to look backwards at where we've come. I agree that all those things could happen going forward; that's just prospective; it's something we don't know about. But looking backwards we haven't had a move upward; as a matter of fact we've had a slight move down ward in long rates at the same time the funds rate moved up. You say that the long-rate effect may involve a longer lag than I'm giving credit for, but what's going to be the effect of that? 	12	12	1.0	1.0	44.0
198811	238	PRELL	 Well, we don't expect housing to be as weak over the next quarter as we previously thought it would be. But that's going to be the most visible effect. 	12	12	1.0	0.0	999.0
198811	239	JOHNSON	 Now, you're getting into something. I think you're saying that because the yield curve has flattened out and long rates haven't gone up that that's going to have a longer stimulus with a lag? 	12	12	1.0	1.0	44.0
198811	240	PRELL	 We think it will in the housing area and nominal rates may have some greater role there than they might in some other areas as opposed to real rates alone. That's a possibility. 	12	12	1.0	0.0	999.0
198811	241	JOHNSON	 So you're saying real rates have actually fallen on the long end? 	12	12	1.0	1.0	44.0
198811	242	PRELL	 Well, I think it's debatable what's happened to real rates. We don't think real rates have changed a great deal basically, even over a lengthier period of time than the last few months. We don't see that there has been a tremendous movement in real rates. 	12	12	1.0	0.0	999.0
198811	243	JOHNSON	 So you'd have to agree though that if that's the case, there has been some decline in inflationary expectations. 	12	12	1.0	1.0	44.0
198811	244	PRELL	 Indeed.  	12	12	1.0	0.0	999.0
198811	245	JOHNSON	 And you're just saying it's temporary and ill conceived? 	12	12	1.0	1.0	44.0
198811	246	PRELL	 No, not necessarily. What the norm is in the market here is hard to assess, but I guess we may be a bit less optimistic about what would happen with inflation if we maintained current levels of resource utilization in some markets. There is also a considerable view in the market that we're going to have a recession in 1989-1990, that we will see rates coming down significantly. Many of those people don't anticipate that it will occur with a further rate increase but just somehow will happen spontaneously. Others think that small temporary further rate increases will trigger this. Our view is that there is more underlying strength in the economy and that a small, further increase in rates would not have the effect of tipping the economy into recession. It's a very difficult process of figuring out what various segments of the market population are thinking, and what they're thinking we will do, which is another element that affects the term structure. If we devote more attention to the term structure and if that's our policy-making [tool], this would go back to the Lucas critique. It changes the structure of expectations formation of the markets to mean that the term structure has different implications in terms of reflecting market expectations of the economy than it did previously. So, we're in a very difficult expectations assessment. 	12	12	1.0	0.0	999.0
198811	247	JOHNSON	 I agree that all those expectations are quite [unintelligible], but we've had almost a year in which those long rates have had a chance to wash out or adjust expectations and they really have held. 	12	12	1.0	1.0	44.0
198811	248	PRELL	 But if you look at a very long period though, you would see that long rates are [quite close to] cyclical lows, [while] short rates have moved up relative to their cyclical lows. I think there is this recent phenomenon which probably has been exacerbated-- maybe more in my view than in Peter's and Don's--by questions about Treasury bond authority and the flight to quality from the recent LBO developments that may have proved somewhat more depressing for the Treasury bond rates than otherwise would have been the case. 	12	12	1.0	0.0	999.0
198811	249	JOHNSON	 That may have occurred earlier; I don't know about now. The tax bill is passed. I think that's [not affecting the long] end of the yield curve now. Anyway, I don't want to address too much of this. It's just that we've had this event over the last year and clearly it either has to be a decline in inflationary expectations or a decline in the real rate of interest. And since we don't think it's the decline in the real rate since we've been tighter, then it has to be a change in inflationary expectations. I know that can all change going forward, but at least I think you have to say at this point that's what the market thinks. 	12	12	1.0	1.0	44.0
198811	250	GREENSPAN	 President Morris. 	12	12	1.0	1.0	47.0
198811	251	MORRIS	 Well, Mr. Chairman, as I said earlier I think the inflation projections look much too optimistic. I would use them as a best case projection. There are a lot of very optimistic assumptions embodied in the projections. One is what will happen to unit labor costs--because it has been in a rising trend since the middle of 1987. The projection assumes that they will level out at 4  percent throughout 1989. I would think this would certainly be the best case projection. I can't imagine anyone coming up with a lower number. I would say that more probably we will continue to see some continued rise in unit labor costs. 	12	12	1.0	1.0	1.0
198811	252	GREENSPAN	 Is that productivity or compensation? 	12	12	1.0	1.0	47.0
198811	253	MORRIS	 Compensation. 	12	12	1.0	1.0	1.0
198811	254	JOHNSON	 You don't mean unit labor costs, you mean-- 	12	12	1.0	1.0	44.0
198811	255	GREENSPAN	 He means unit labor costs. 	12	12	1.0	1.0	47.0
198811	256	MORRIS	 I mean labor costs. 	12	12	1.0	1.0	1.0
198811	257	GREENSPAN	 4 percent all through compensation? 	12	12	1.0	1.0	47.0
198811	258	MORRIS	 That's what the projection shows through 1989 and leveling off around 4 percent unit labor costs. 	12	12	1.0	1.0	1.0
198811	259	GREENSPAN	 With productivity up .8? 	12	12	1.0	1.0	47.0
198811	260	MORRIS	 Yes. And I hope that's the outcome, but I think in the seventh year of an expansion with very tight labor markets and growing tighter that could well be off on the low side. 	12	12	1.0	1.0	1.0
198811	261	GREENSPAN	 I think you have to explain why the tightened labor markets to date haven't had any really measurable effect on the acceleration of wage patterns. That third-quarter unemployment cost index was something of a surprise, a deviation from historic experience. How do you explain that? 	12	12	1.0	1.0	47.0
198811	262	MORRIS	 I really don't know. I think we've been blessed in this situation with the remarkable behavior in wages. I think you can attribute some of it to the decline in organized labor, some to concern about being competitive with foreigners which we didn't have in the 1970s. But I'm not confident that it's going to continue. 	12	12	1.0	1.0	1.0
198811	263	GREENSPAN	 This is supposed to be questions from you to our colleagues. I don't know why I'm asking you, Frank. 	12	12	1.0	1.0	47.0
198811	264	MORRIS	 No, it's all right. I would like to think that it will level out at 4 percent. But I think that the odds are that it's going to start to get higher. I think we're more vulnerable next year since I believe that the dollar has started another leg down. The value of the dollar is likely to average significantly lower next year than this year, and therefore import prices are likely to rise more in 1989 than they did in 1988. And the third thing is that they are projecting lower oil prices and they may well be right. I wouldn't know how to forecast oil prices, but I think there is a possibility they may not be as low as they are talking about. 	12	12	1.0	1.0	1.0
198811	265	PRELL	 President Morris, can I just clarify? We're not projecting lower oil prices but we are no longer projecting an updrift in oil prices. We're essentially saying they aren't going anywhere from the current level.  	12	12	1.0	0.0	999.0
198811	266	MORRIS	 Okay. The fact, nevertheless, is it reflects back from the projection for greater growth. 	12	12	1.0	1.0	1.0
198811	267	PRELL	 Relative to greater-- 	12	12	1.0	0.0	999.0
198811	268	MORRIS	" And you're also forecasting, I take it, a normal agricultural year which again I hope turns out to be the case. But if we have a second bad crop year, then I think we can see some very big increase [in food prices]. I'd prefer to [be optimistic] on this but two [poor crop] years back to back could mean very big food price increases. Now, that's more reason why I look upon this as the best case projection because everything has to go right to keep the inflation rate down in the range that we're talking about. I haven't been accustomed to everything turning out right that often. So, it seems to me it's important if we're thinking about monetary policy for next year to hope that we get this result but have in the back of our minds that maybe the ""best case"" projection is not going to be the one that's realized. "	12	12	1.0	1.0	1.0
198811	269	GREENSPAN	 Can I suggest we stay with questions so we can break after the questions and come back for general comments after that? President Parry. 	12	12	1.0	1.0	47.0
198811	270	PARRY	 Mike, the level of nonfarm business investment in inventories has been averaging about $31, $32 billion for the last two quarters. You've got quite a pickup in the fourth quarter--that means a source of strength in the fourth quarter--and then it remains at that high level throughout most of 1989. The level at around $40 billion is just a little bit high traditionally. You commented that you thought inventories were lean. Could you talk about that a little bit because clearly it could be a source of weakness if it doesn't contain those. 	12	12	1.0	1.0	45.0
198811	271	PRELL	 Well, we do have a pickup in the fourth quarter which is largely the expectation that automobile stocks will increase somewhat with these higher assemblies. Looking ahead, we're expecting to see some moderate accumulation in manufacturing and where inventories still look to be on hold very little. We would expect to see some significant accumulation, not very large though, in the trade sector. This, given the scale of the economy now, is not a tremendously high rate of inventory accumulation and it doesn't really result in any substantial change in inventory-sales relationships. So we think this is easily consistent with the kind of overall growth and final demand we have, so long as it's perceived to be in an environment of sustained growth and businessmen don't begin to get as comforted by it. So certainly there's always a risk on the inventory side from our current assessment where some bumping could go on, but it doesn't look like a very aggressive forecast and there are quite a few forecasts out there that would be higher and others that would be about $20 to $22 billion. 	12	12	1.0	0.0	999.0
198811	272	GREENSPAN	 Governor Seger. 	12	12	1.0	1.0	47.0
198811	273	SEGER	 Just two quick questions. On the assumption about where we'll have to put interest rates over next year, you said plus one percent on fed funds between now and the end of next year, is that right?  	12	12	1.0	1.0	40.0
198811	274	PRELL	 Early next year. Yes. 	12	12	1.0	0.0	999.0
198811	275	SEGER	 Okay, how about the long rate? 	12	12	1.0	1.0	40.0
198811	276	PRELL	 We have them going up about the same amount. 	12	12	1.0	0.0	999.0
198811	277	SEGER	 Also the same, whether it's long governments or mortgages? 	12	12	1.0	1.0	40.0
198811	278	PRELL	 The events of recent days have pushed the Treasury bond rate to its current low, but If that rate is representative of the lower constellation of all rates or what's happened to other dealers on that track--and that I guess is what Governor Johnson was referring to--we have an essentially parallel movement of the rates. 	12	12	1.0	0.0	999.0
198811	279	SEGER	 Run this by me again. I think I asked this question last time; I'm getting more dense by the minute. What are the underlying demand forces now that we're really trying to dampen, knock in the head? 	12	12	1.0	1.0	40.0
198811	280	PRELL	 Well, we still think that business fixed investment, has a certain head of steam--not quite as [much] as earlier this year but still providing some forward thrust. On the assumption that we will continue to see a softer dollar than we've seen earlier this year, we see some stimulus to domestic production from the trade side. A basic point that I was trying to make was that there's no reason for an economy to gravitate to rates below normal in essence unless something is there to restrain it. And while we see fiscal policy as mildly restrictive, it is not a big powerful force as you look out at the year ahead. We don't see the inventory situation as being one that suggests there is going to be a retrenchment in orders and production imminently. And so in this kind of environment, unless we assume that there was still some monetary restraint at work going out over the next few quarters to further damp things down, the tendency would be for the economy to tend to grow at or above potential. And in this projection, if you want to turn the inflation trend back down again, you need to tip below that for a while and open up a little more slack in the economy. All of that Is conditioned on some assessment of what this level of resource utilization means for inflation pressures. Basically, a crude reading of the experience over the past year would be that as capacity utilization rates have risen to their recent range and unemployment dropped below 6 and toward 5-1/2 percent, there was a general acceleration in wages and prices. Basically, we're saying you've got to try to reverse that if you really do want by 1990 to be moving back down on the basic inflation rate trend. 	12	12	1.0	0.0	999.0
198811	281	SEGER	 I guess I just have a slightly different view of life in the streets. Thank you. 	12	12	1.0	1.0	40.0
198811	282	GREENSPAN	 Governor Angell. 	12	12	1.0	1.0	47.0
198811	283	ANGELL	 Mike, would you go back and reread that sentence where you said something to the effect that we've stretched out the acceleration of inflation. It's back close to the very beginning. You think we've stretched out the period of acceleration of inflation.  	12	12	1.0	1.0	43.0
198811	284	PRELL	 No, I talked about interest rates and I said-- 	12	12	1.0	0.0	999.0
198811	285	ANGELL	 No, no, I'm talking about stretched out-- 	12	12	1.0	1.0	43.0
198811	286	PRELL	 I don't remember such a sentence. But we have a somewhat lower rate of inflation in the near term overall because of the change in energy prices. 	12	12	1.0	0.0	999.0
198811	287	ANGELL	 Well, that's why I didn't understand why you would have said [what you did] when the Greenbook clearly shows--would you read it please? 	12	12	1.0	1.0	43.0
198811	288	PRELL	 I'm sorry, would you repeat it, please? 	12	12	1.0	0.0	999.0
198811	289	ANGELL	 Did you find it, Ted? 	12	12	1.0	1.0	43.0
198811	290	PRELL	 Well, I have a sentence here that says because energy prices will be damping inflation in the short run, we built a more gradual interest rate increase into our current forecast. 	12	12	1.0	0.0	999.0
198811	291	ANGELL	 No, you were talking about price increases. I'll go back and read through it. 	12	12	1.0	1.0	43.0
198811	292	PRELL	 You're welcome to. I'm not-- 	12	12	1.0	0.0	999.0
198811	293	ANGELL	 Do you agree that you said that you stretched out the rate of inflation in your forecast? 	12	12	1.0	1.0	43.0
198811	294	PRELL	 I didn't say that, but the fact is that our inflation rate is lower than it was previously. 	12	12	1.0	0.0	999.0
198811	295	ANGELL	 Yes, that's what I saw in the Greenbook and that's why you have the rate of inflation going down in the Greenbook. In 1989 the fixed weight inflation index was down to 4.2 from 4.5 percent in 1988, which is lower by 3/l0ths of a percentage point. And the CPI fourth quarter over fourth quarter is 4.3 percent in 1989 versus 4.4 percent in 1988, and that's why I was surprised to hear you say that you've stretched out the acceleration of inflation. 	12	12	1.0	1.0	43.0
198811	296	PRELL	 I'm surprised, too. Certainly, the fact is that because of the energy price change we have a lower rate of inflation in this forecast than we did previously. What I suggested was if you stripped away that energy price effect, which presumably will be largely transitory [though] it could develop some momentum as it feeds through, but if it does it would serve to lower wages and so on. But if you look excluding energy, prices rise more rapidly next year than this year. And so in that sense, and looking at the compensation numbers as was noted earlier, there is a sense of a slight upward trend going through 1989 with a slight tightening and the economy growing at a slower pace. 	12	12	1.0	0.0	999.0
198811	297	ANGELL	 Even though your numbers show inflation going down, you said it's going up, that's all. 	12	12	1.0	1.0	43.0
198811	298	SPEAKER	 What about 1990? 	12	12	1.0	0.0	999.0
198811	299	PRELL	 It changes and there's two rarts of the sentence.  	12	12	1.0	0.0	999.0
198811	300	SPEAKER	 Maybe you can help solve the problem by telling us what 1990 looks like; that way he'll have a trend. 	12	12	1.0	0.0	999.0
198811	301	PRELL	 Well, for 1990 one needs to make some policy conjectures and so on. We will present 1990 next time and basically we would at this point expect to show a forecast with rather slow growth in 1990, possibly some slight further edging up in unemployment. [unintelligible] utilization, and some indication of a downward movement in excluding energy prices and compensation. So, we're looking toward 1990 really in our thinking here about the interest rate path at this point of projecting. 	12	12	1.0	0.0	999.0
198811	302	LAWARE	 Mr. Truman, the oil projection is a very important part of this whole forecast and I heard you as you were going through your conjectures about OPEC talking about I think three different levels of projections and prices. Could you replay that for me just so I'm sure I understand what you said. 	12	12	1.0	1.0	50.0
198811	303	TRUMAN	 Yes. First, let me say this is an area where we feel so nervous we call it an assumption and try to have some rationale behind the assumption. The assumption that they'll stay around the current level or maybe rebound after [the OPEC meeting to] $13 a barrel is based upon an assumption that they will be able to restrain production of crude petroleum to slightly under 20 million barrels per day. 	12	12	1.0	0.0	999.0
198811	304	LAWARE	 From the 21 million? 	12	12	1.0	1.0	50.0
198811	305	TRUMAN	 From the current 21 million plus that they're at now. If indeed they fail to do that, and say they were at or above 21 plus, then you could have a drop in oil prices down below $10 a barrel, roughly that order of magnitude. [Coffee break] 	2	2	1.0	0.0	999.0
198811	306	GREENSPAN	 Can we get started? Who would like to open up on Committee discussion? 	13	13	1.0	1.0	47.0
198811	307	BOEHNE	 Well, I think there is an element of Santa Claus in the outlook, but I don't think that's something that we ought to snicker at. Some of it is luck, but some of it is our own doing. We did anticipate an economy that was overheating. We took a series of gradual steps over a period of months. And I think that we ought not to be all that unhappy that it's bringing forth the results that we set out to achieve. So, while I think we have to be watchful and maybe a little skeptical, I don't think that just because something is falling our way that we ought to say that it isn't a realistic outlook. I'm reasonably pleased with the outlook. My own sense is that the risks are still on the side of inflation, but I think that there's nothing in the immediate scene that would require us to take any significant action. So I'm prepared to say hello to Santa Claus a little early. 	13	13	1.0	1.0	33.0
198811	308	GREENSPAN	 President Parry. 	13	13	1.0	1.0	47.0
198811	309	PARRY	 Mr. Chairman, growth in the Twelfth District has slowed somewhat but we think the outlook is rather optimistic. The slowing really appears to reflect the tightening of labor markets and  the lack of unused resources rather than just weakness in demand. To offset these impediments to expansion, we're beginning to see that some employment growth is shifting through areas of the District which have characteristically been weaker. For example, Boeing is opening up a plant in Spokane in eastern Washington where there is a lot of labor available, and it has been traditionally weak. We've seen, for example, that Carnation is going to open its largest production plant in Bakersfield. As you know, Bakersfield is about 110 miles north of L.A. and costs are quite a bit lower there. So, that does seem to be going on a bit. As far as durable goods manufacturing is concerned, it remains strong because of the dominance of aircraft and electronics industries. And you perhaps saw the article today in the paper about Boeing indicating the strength of their sales and profits. We are also seeing the shortages that have been characteristic of the wood products and paper industries fading a bit. This probably is a result of the fact that housing has weakened a bit, at least new housing. And the generally slower pace of the economy may be having some impact on packaging. Prospects for agriculture in the District--and I'll just underline the point that it is the single largest industry in the District--prospects there depend very importantly on rainfall this winter. We have had two years of drought, but it really hasn't affected agriculture. Most of our agriculture in the District, especially in California, depends on irrigation; but if we have a third straight year of drought this winter it would cause problems. Also in 1988 the District continued to excel in the production of championship professional sports teams! 	13	13	1.0	1.0	45.0
198811	310	GREENSPAN	 I think you've got a surplus with inventory adjustment! 	13	13	1.0	1.0	47.0
198811	311	PARRY	 With regard to the national economy, I would agree that [some) slowing of economic growth may be underway. After we abstract from the effects of the drought, our forecast is that growth will average about 2 percent next year with the slowing in growth centered in the areas that have been mentioned in the Greenbook forecast: net exports, business spending on plant and equipment, and consumer spending on durables. And although inflation certainly could be less next year, I think the underlying rate of inflation probably will not improve. And it seems to me, therefore, that further tightening action may be required sometime in 1989. 	13	13	1.0	1.0	45.0
198811	312	GREENSPAN	 President Keehn. 	13	13	1.0	1.0	47.0
198811	313	KEEHN	 Well, our outlook is broadly, in the national context, very consistent with the Board's forecast; certainly in a numerical sense that would be true, but it is perhaps a little bit different in tone. From many indicators certainly, it would appear that we are experiencing some moderation in the growth rate, albeit from very high levels. I think really the major question is whether or not this moderation is and will continue to flow through to prices. And on this front there are just a couple of what I would view as signs, and therefore the second part of the question would be do we need to take additional steps at this point to accelerate the process. We'll talk about that later. With regard to the District and consistent with the overall economy, manufacturing activity in our District ?s we measure it does seem to be moderating. On the price front, contacts within the  District and certainly our directors suggest that there is a discernible leveling in price trends with regard to certain raw materials and commodities. The paper industry for example where there have been very significant increases in pulp prices, weight paper, and [unintelligible] prices seem to be hitting a peak. Indeed, expects to see something of a decline in those prices over the next five or six months. Aluminum prices are down; even steel is showing some signs of leveling. And there are many products that have been in very short supply where the backlogs have been filling up with these distinct signs of easing. A comment about housing: We would expect 1989 to be not unlike 1988 with regard to housing starts, say 1.4 or 1.45 million. But in the past, production and housing starts have been attributable to interest rates. who are very close to this industry, are suggesting that in fact we may be getting into an environment of some market saturation and that if new home sales don't continue at a fairly high level, we could see a buildup of inventory of unsold homes. If this is true, if we're getting into some market saturation with regard to housing, I've always had a question on the auto side of how far we can continue with these very big auto years. And then we could also get some market saturation in that sector. Finally, a comment on the agricultural sector: I hate to mention it, but I'm going to say just one thing about aflatoxin, which is an issue that has been very badly we think blown out of proportion; it's really not as big an issue as you might expect from reading the press. But the FDA's standards of aflatoxin were really very, very tight. It's one of these issues where you have to eat a ton of corn flakes forever before you get into trouble. Those standards have been reduced a bit, but when this first hit the exchanges corn prices took a big dive; and beans, in sympathy, also went down. They've come back and I think the markets are looking through this as kind of a non- issue. From a [statistically] measurable perspective, we would expect that the aflatoxin effect would have stopped, but admittedly [the price of corn] is down because the drought would only have an effect of, say, 5 to 10 percent. Given this year's drought, the early anticipation is that the next year's planting will be very heavy. And of course we're a million miles away from that event. But the expectation is that the acreage will be up by about 35 million acres, some 12 to 14 percent. And if we get some reasonable growing season [weather], production could be pretty heavy. Meanwhile, land values are continuing to increase--3 percent in this most recent quarter and 4 percent over the year. So, I must say net at least in our District, the agricultural sector has come through much better than one might have expected given the kind of circumstances that we were dealing with. I think from a national perspective as well as from the District's, things are in pretty good balance. And I would agree that no doubt some of the moderation that we are experiencing is a reflection of the monetary policy actions that we've taken so far. 	13	13	1.0	1.0	35.0
198811	314	GREENSPAN	 President Forrestal. 	13	13	1.0	1.0	47.0
198811	315	FORRESTAL	 Thank you, Mr. Chairman. With respect to the District not very much has changed since the last meeting and so I won't spend very much time on that. I will observe that the Sixth  District economic activity continues somewhat sluggish on average, and this reflects in part at least the softening seen in the national economy. Weaknesses are basically in apparel, which has weakened somewhat since out last meeting. That's also having an effect on textile output as you would expect. Retail sales are fairly sluggish throughout the District with some exceptions in some of the larger metropolitan areas. But the retailers are expecting some pickup and their strategy seems to be to have pretty heavy discounts and promotions at the holiday season. Housing is also soft. All of these weaknesses are leading to some uptick in the unemployment rate generally around the District. We're getting fairly good strength in automobile sales where inventories have been very low. I spoke to a Chevrolet dealer yesterday, and he said that as of the middle of September he had no 1988 cars at all, absolutely none. And he's looking for a good 1989. The service sector continues to be strong in the Sixth District, and agriculture in spite of the drought has picked up and the prospects for farm income have improved considerably because we've had some late rain which has brought yields on several crops to above average levels. And these prices, of course, are helping farmers. Two other things that I would mention: In going around the District and talking to business people, bankers, and our directors, we see very little evidence of price increases. There are some price increases coming for raw materials, but apparently many industries are not able--at this point at least in our District--to pass these through. We keep asking about wage pressures and, in spite of some labor shortages, we don't see very much in the way of evidence of increased wages either in the services sector or in organized industries. On the national economy, our forecast is a bit stronger than the one shown in the Greenbook. I think this is partly because we have not assumed that further restraint is put in place in 1989, as the Greenbook obviously has. As a result of that, we also see higher inflation, and I would tend to agree with Frank Morris that the [Greenbook] inflation forecast is probably the best that one could come up with. On the real economy side, we think consumer expenditures are going to be somewhat stronger. We also think that the improvement in net exports is going to be somewhat smaller than the Board staff is forecasting. Now, I think that Mike Prell put his finger on something that has been very apparent to me over the past several months and that is there seems to be a psychological mindset on the part of many people that 5 percent inflation is an acceptable level for prices. I think associated with that is the feeling that is perhaps growing that the Federal Reserve in fact is satisfied and content with that level of inflation. Now, I have a concern certainly about that, but I have a further concern that this LBO activity that we've seen recently--and all of us I suppose are concerned about this greater leverage throughout the economy--I hope is not being driven by assumptions that inflation will ease this debt burden in the future. There have been people saying to me that they think the Federal Reserve is going to have a very inflexible kind of policy because we can't afford to allow a recession to appear in the economy. We've had the thrift industry problem; we've had the LDC problem; the deficit problem; and now we overlay this LBO situation. And I think there is a feeling in the market that maybe the Fed's hands are tied  and we have to maintain an inflation rate to keep [the economy] from moving into a recession. I hope that that's not true and I hope that somehow we can get the message across that we are not content to allow inflation to remain at its present level. We'll get into the monetary prescription in just a moment. I'm not arguing for a tightening of policy now, but I think in some ways we need to construct, however we can, the mechanism to get the word out that we are not going to be in the business of perpetuating inflation for the LBOs or other reasons. 	13	13	1.0	1.0	39.0
198811	316	GREENSPAN	 President Stern. 	13	13	1.0	1.0	47.0
198811	317	STERN	 With regard to the national economy and the Greenbook forecast and the [unintelligible] that are underlying that, it seems to me that the risk of falling considerably short of what's in the Greenbook is low. And I think Mike Prell outlined a number of points with which I agree that account for that. Orders backlogs remain substantial; inventories remain relatively low. I do think there will be further improvement over time in the trade situation. And I would add to that that I don't know how much fiscal restraint is assumed in the Greenbook, but I must say I'm a little concerned about the course of fiscal policy and the [impact of] Gramm-Rudman and so forth as we go forward. So, as I look at that particular forecast I don't see a lot of conditional downside risk aside from the possibility of some exogenous shock. I don't know if the economy is going to do a lot better than that; I'm not saying that, but I don't see that there's a lot of risk in it. I think that kind of forecast as several people have commented is welcome, in part because I think we are in for a period of rather modest growth in the labor force because of demographics and other factors. We probably shouldn't get too enthusiastic about what we might do on the productivity side, and so I think that does limit things from the production or supply side of the equation. As far as the District economy is concerned in this environment, the District economy continues to perform very well. There are a few pockets where the drought has had a significant and adverse effect on agriculture. But as I've commented before, in the large diversified metropolitan areas, the District economy has been quite strong for some time. And one thing that's now very, very clear as far as much of the rest of the rural part of the District is concerned, is that the paper and forest products industry and the mining industry are sufficiently large and are expanding sufficiently strongly that they are taking the rest of the rural economy up with them. And so in this District at least a substantial economic expansion is continuing. 	13	13	1.0	1.0	41.0
198811	318	GREENSPAN	 President Boykin. 	13	13	1.0	1.0	47.0
198811	319	BOYKIN	 In the Eleventh District, Mr. Chairman, things are pretty much as they were in September. We are continuing to see some modest growth. Manufacturing is leading the improvement that we have. The unemployment rates in our three states have been moving downward but only Texas is making any progress compared to the national rate in closing the gap. In Texas we've got unemployment of 6.8 percent; in New Mexico it's 8-1/2 percent; in Louisiana it's 10 percent. The lower oil prices are a real source of concern and could undermine the modest recovery that we've been experiencing. I think further declines would probably cause us to look for zero growth in  1989 compared with the 1-1/2 percent or so rate of growth that we've been forecasting over the last several months. Other sources of concern for us include a noticeable slowdown of orders in the electronics industry. And there continue to be a few pockets on the foreign side and [some] that tend to be drought-related. Of course, we continue to worry about and try to deal with the financial situa tion in our District, both on the thrift side and the banking side. 	13	13	1.0	1.0	34.0
198811	320	GREENSPAN	 President Melzer. 	13	13	1.0	1.0	47.0
198811	321	MELZER	 In our District, I've been reporting the last couple of times on a relative gap in employment growth vis-a-vis the national averages which has been somewhat surprising because our District is tracking [the national economy] pretty well. In fact, in the second quarter we had the largest gap ever in the 30 years that this number has been looked at. That trend seems to be perhaps reversing itself now, and we did have modest manufacturing employment growth and relatively flat nonag employment in the recent period. In manufacturing, the areas where growth was noted are electrical equipment, nonelectric machinery, and chemicals. In any case, in looking at this peculiar behavior, because as Bob Forrestal has been reporting and I have as well our activity really doesn't seem to be as strong as the national averages, we tried to figure out what was going on and some of it may be explained by a greater concentration in manufacturing in the District than nationally and services have been growing more rapidly nationally. And secondly, there may be some seasonal adjustment problems. But basically we haven't been able to explain or understand this fully. Reflecting some of the comments that others have made, the agricultural picture is a lot rosier than might have been anticipated at one time. Corn crops came in better than expected; soybeans were higher than last year; the cotton crop was a 25-year record; the rice crop was good; the tobacco crop was the best in 4 years, so I'd say that generally the picture there is pretty rosy in the District. Finally, in terms of credit demand bank lending has been relatively sluggish although we've noted a pickup in the third quarter. Growth in commercial lending both in the most recent three-month period and over the year as a whole has been about 11 percent, and that's quite a shift on the commercial lending side over the last year. 	13	13	1.0	1.0	42.0
198811	322	GREENSPAN	 President Guffey. 	13	13	1.0	1.0	47.0
198811	323	GUFFEY	 Thank you, Mr. Chairman. With respect to the national economy we would agree with the Greenbook on growth in 1988. For 1989 we project a bit slower growth than the Greenbook, and that's without the assumption that interest rates would rise in 1989. I guess you could conclude, therefore, that we are [projecting] more than just modestly slower growth than the Greenbook. Nonetheless, it's so close that it has no real relevance for this purpose. With regard to the District economy, in the agricultural sector as already has been noted the picture is very bright; it has almost turned upside down from what we were looking at earlier in the year. The net farm income for the nation, for example, will be as great as it was last year and last year was a record. Having said that, there are some pockets within the District where the drought has had a substantial impact, particularly northern Missouri, northeastern  Kansas, and on up into Si's area. On the other hand, agricultural farmland sales have picked up rather dramatically because of the liquidity that seems to be in that area. And prices have begun to accelerate in those sales. With regard to the manufacturing sector, it's roughly flat. Retail sales are flat. It's interesting that we also have found little evidence of price increases showing up in the District. However, without exception when you talk with business people in the District, inflation is still on their minds. There's an interesting activity going on in the energy sector because of the drop in the [price of] oil. OPEC oil prices have created the uncertainty that quite likely will almost close down the new exploration activity within our District. It's a fairly sizable part of the economy and largely will affect Oklahoma, Colorado, and Wyoming. Those are the areas that were depressed earlier because of agriculture and energy and it won't help their outlook. There is no new information with respect to commercial construction which is a problem in Denver, Oklahoma City, and Tulsa. It's going to take a long time to work its way out. Overall, I think the Tenth District will continue to trail the national recovery. 	13	13	1.0	1.0	20.0
198811	324	GREENSPAN	 Governor Seger. 	13	13	1.0	1.0	47.0
198811	325	SEGER	" I read the Beigebook this time with great interest and all the comments about signs of slowing business. I certainly agree with that. I also think it will slow next year even without additional tightening. I have been checking a great deal with all kinds of firms that actually deal with consumers, and the story is consistent that consumers need tremendous inducements to buy, a lot of coaxing; competition is fierce all over. Also, if you look at the inventories expressed as inventories-to-sales ratios and do it in constant dollar terms--I'm thinking of the chart that I get from Goldman-Sachs all the time--it shows inventories are not in quite such good shape as I think we're assuming they are. Also, if the sales part of the ratio weakens much, then what look like acceptable ratios can quickly become a touch high. Also, with regard to business spending .on equipment, I'm again hearing more and more decision makers comment on the uncertainties they have over future tax policy as we hear more and more talk about fixing the deficit and I think that that in and of itself is going to put a damper on this kind of activity. Also, questions [they have] about sales prospects in their own businesses I think will tend to support that sluggishness. On the housing side, I agree that sales of existing homes have been strong, but I also know that many realtors have been out beating the bushes telling their customers to buy now because home prices are going to rise and buy now because mortgage rates are going up. And I think that there's some of that in these good results for the last three or four months. Also, I'd just like to take a minute to report on an interesting meeting I had yesterday with some Fortune 500 kinds of business people. They had an interesting main topic of conversation, because they chose the subject of corporate takeovers. That was their big interest, and I guess I shouldn't be surprised that one of the interesting things that came up was the notion that there are almost con-man types who are out running around and will actually go and approach management at very big companies and tell them if they go for one of these deals we will guarantee you so many millions of dollars,  etc. And so these people are actually trying to play, I guess I'd almost call it matchmaker, before there is any action of another type taking place. But there is great concern and the more thoughtful ones I believe were also talking about these two recent heavily publicized deals and saying that, sure, the debt can probably be serviced but that would mean that the cash that they thought they were going to have for R&D expenditures, privatization, etc., would be drained off from those good projects and would have to be used for debt service. I think they were quite concerned about that. The second big topic of conversation was this new National Economic Commission and they were very eager I'd say for that group to get its deliberations done and announce the results on December 15th. And I think their expectation is very high, in fact so high that afterwards a fellow who works for and has been attending these NEC meetings with him came up to me and said ""I just want to warn you, don't be too optimistic because first of all they're not going to have the report by December 15th; secondly, there's no guarantee they'll even agree among themselves on how to do it."" And, therefore, he thought that there might be some disappointment with the results. And then finally, some of them did express some concern about the outlook for next year and whether or not the economy would make it through a seventh year of recovery. But overall it was very, very illuminating. "	13	13	1.0	1.0	40.0
198811	326	GREENSPAN	 President Hoskins. 	13	13	1.0	1.0	47.0
198811	327	HOSKINS	 Given the national slowdown that we've been hearing about and also the third-quarter numbers, we tortured the anecdotal data as best we could and failed to confirm any reasonable slowing in the District. The best we could find was a steel company that had gone off allocations to customers. In other words, it was back to price and bargaining at that time. 	13	13	1.0	1.0	49.0
198811	328	SEGER	 Did you talk to your retailers? 	13	13	1.0	1.0	40.0
198811	329	HOSKINS	 Pardon me? 	13	13	1.0	1.0	49.0
198811	330	SEGER	 Did you talk to your retailers? 	13	13	1.0	1.0	40.0
198811	331	HOSKINS	 Yes, I'm on manufacturing right now. 	13	13	1.0	1.0	49.0
198811	332	SEGER	 Oh, okay. 	13	13	1.0	1.0	40.0
198811	333	HOSKINS	 I'll go to retail. 	13	13	1.0	1.0	49.0
198811	334	SEGER	 Okay. 	13	13	1.0	1.0	40.0
198811	335	HOSKINS	 Steel production in the State of Ohio is up about 9 percent in the last three months over a year ago. Manufacturers are optimistic. In terms of new orders they're still really quite strong. Again, the District may not be typical of the nation as a whole. Inventories are relatively low and the orders are strong. In terms of hiring plans, there has been a survey that was completed recently within the District. We have 19 out of 25 of the larger cities where we expect increases in employment. Four cities that are strongest are the four largest, Cincinnati, Columbus, Pittsburgh, and Cleveland. Retail sales [are up] probably about 5 percent over a year ago, but inflation in the 3 to 4 or 5 percent range leaves a very small real gain. But that's not much different  from the way it has been the whole time. So, really not much has changed in the District from what I've been reporting in the past even though we increased our efforts to try to ferret it out where we might be anticipating a slowdown. In terms of the national economy the only thing we might have to add is that we do have a panel of Fourth-District economists that meets quarterly. Their only disagreement with the Board forecast would be on the implicit price deflator. They are about 4 percent higher than the Greenbook for 1989. But again these are primarily manufacturing-based people who are looking at fairly optimistic sales projections. 	13	13	1.0	1.0	49.0
198811	336	GREENSPAN	 Governor Angell. 	13	13	1.0	1.0	47.0
198811	337	ANGELL	 I think I see an outlook that's every bit as strong as the staff would see it. I don't have the slightest idea what interest rates might prevail over the period ahead, but it does seem to me that the economy shows a lot of resilience and a lot of signs of continued increase. And it doesn't show any signs that the recent slowdown in money growth is being translated into anything which would be an expansion-ending event. It seems to me that our economy has changed rather dramatically in the '80s from the '70s, that we are in a much more flexible wage-price arena than we had been in before. Otherwise, it just wouldn't be true that we could have the kind of exchange rate adjustments of the dollar that we had and the kind of monetary growth paths that we had in 1985 and 1986 without it showing through into much higher rates of inflation than the year- over-year 4.1 percent that I think we're now seeing in CPI. And it seems to me that that shows us that the environment has changed globally and that that has tremendous impact domestically. But we've had a lot of industries that have suffered rather severe shakeouts. And people's memory gets to be long and so we have more attention in industrial America and in rural farm America concentrating on cost efficiencies than we did before. And now given the present level of commodity prices, the present level of finished goods producer prices, crude industrial prices--those prices, it seems to me with this emphasis upon cost efficiency, provide ample profit margins to give us the kind of capital investment and the kind of continued expansion that I think we find is desirable for the economy. Now, even though some commodity prices may have shown some response to the slower money growth, we haven't been having commodity prices that just do not show that. And it seems to me that the back hasn't been broken in terms of this price cycle so that we can suggest the commodity price deflation such as began in 1984 and 1985 would reach the proportions that it did in, say, 1986. Now, I would agree that the one exception to that is oil, but there again in percentage terms we're not looking at the same kind of reductions they were looking at in that period. And I would agree with Roger that the areas of United States oil industry that have such difficulty finding oil resources, and where the output of oil is so low, are indeed going to experience some dramatic curtailment. But I believe that will be more than offset by the [expansion] under way in agriculture. Just the release of all these acres from the acreage control [program] means demand for more machinery; it means demand for more fuel; it means demand for more fertilizer. So, we already have  under way a large acreage expansion of the agricultural industry which I think probably by itself offsets what's happening in oil. Now, it just seems to me that a foreign exchange movement of the dollar [associated with] decided weaknesses would undoubtedly cause commodity prices to at least remain at these very, very high levels if not to accelerate. And so it seems to me that the economy does have ample strength. 	13	13	1.0	1.0	43.0
198811	338	GREENSPAN	 Vice Chairman. 	13	13	1.0	1.0	47.0
198811	339	CORRIGAN	 In terms of the national economy, our guesstimate for the next five quarters really is not materially different from the outlook contained in the Greenbook, although there are some differences in individual sectors. The big difference that we continue to have is on the inflation side in that by the end of 1989 our inflation forecast is about 1-1/4 points higher than the Greenbook forecast. Now, analytically there are two factors that account for that. One is that we have a higher oil price--we have an effective oil price of $15 whereas I think Mike has $13 for the year as a whole. And that's about 4/lOths of a percent in our arithmetic; I don't know what it would be in yours. But the big, big difference is in the fact that we have the unemployment rate drifting down and you've got it drifting up. From where we are, in terms of labor markets, the difference in the algebraic sign makes quite a difference. Indeed, if you look through the numbers, by the end of next year with essentially the same productivity numbers we end up with compensation rates and inflation rates that are in underlying terms 8 to 9/lOths of a percent faster than what is in the Greenbook. I don't know what to make of that. Our year-end unemployment rate is 5.1 percent; the [Greenbook] staff's is 5.6 percent. One would like to think that a half point couldn't make that much difference, but I think it's quite conceivable that it could. Indeed, I think I could even make a case that it could be worse than that. In terms of the question you raised earlier, Mr. Chairman, about why hasn't more shown through on the wage side given where we are right now, we were looking at some numbers that really fascinated me yesterday. I'm sure, Mike, that you look at these; I've just never seen them before. But the breakdown it shows for the collective bargaining agreements was--for example, in 1988 if I remember these numbers correctly--that for still 40 percent of individuals covered by agreements reached in 1988, the agreement provided for some kind of a lump sum payment in lieu of, or partially in lieu of, a wage increase. And even more astonishingly, 20 percent of the population in 1988 still had no wage increase, but a wage reduction. In both cases--if my memory is correct on the numbers, but I think it's close enough-- those numbers of 40 percent and 20 percent respectively are down significantly from where they were in 1984, 1985, and 1986. But I found it surprising they were still as large as they are. And I think that in a symbolic way that is part of the answer to your question as to why we don't see more pressure than we've already seen on the wage side. Now, how much further that kind of thing could work in our system, I don't know. I personally think that the point Frank Morris made about foreign competition is a very big part of it. And maybe we'll get lucky in 1989 as well. But I would agree with Frank that any way I would cut it that the risks are distinctly on the side of an inflation outcome that is somewhere north of the numbers that are in the Greenbook.  .1/1/88 -41- As far as the economy itself is concerned, again the anecdotal comments that we're picking up from directors and others are broadly consistent with the commentary around the table--that things have slowed down a bit from the almost breakneck pace of the late spring and summer. But the economy nevertheless is still being characterized as very solid looking into the future. I think we are still getting anecdotal comments to the effect that export performance outlook still looks good, although I must say in looking at the economic forecast the one place where I still am a little bit nervous on the downside is in terms of net exports. We've got a slower improvement which is understandable, but I don't think that's by any means baked in the cake. But all in all, I think that we're pretty lucky in one sense to be where we are. And, Mr. Boehne, I think that one can look at all of this and easily envision things that could have been a lot, lot more difficult. 	13	13	1.0	1.0	31.0
198811	340	GREENSPAN	 Governor LaWare. 	13	13	1.0	1.0	47.0
198811	341	LAWARE	 I guess I share the feeling of several of you that inflation is more likely to create a need for further tightening as we go forward rather than the other way around. But I don't think that the decision is going to be any easier when we finally have to take it. I think it's going to be more difficult because of the increasing elements of fragility in our financial system, which would react very badly to anything that threw us into any kind of recession. These leveraged buyouts and takeover loans are so delicately balanced, in terms of cash flow on certain assumptions about revenue flows and interest rate levels and the ability to dispose of assets in order to get debt back down to manageable levels, that if there's any hesitation in the economy or any significant downturn in the economy, those could be thrown into very bad straits. And I don't think that's going to get any better as it goes along, nor is the thrift crisis going to be less sensitive to that kind of thing. I don't think there's enough evidence to move in a tighter direction at the moment, but it's going to be a tough decision to make if and when we have to make it because of these other elements. The second thing that worries me is whether we are able to control or manage the decline of the dollar by nominal intervention in the foreign exchange markets. If these markets ever become persuaded that intervention isn't going to do the job, and there is a real flight from dollar-denominated assets, particularly securities, it seems to me that either we're going to have to begin consciously to defend the dollar with interest rates or it's going to get automatically defended because the financing of our deficit is going to be thrown back into domestic markets that will drive interest rates up in any case. Those are the two things that worry me most about the current situation, and yet I'm not persuaded that we should significantly change our course at this stage of the game. 	13	13	1.0	1.0	50.0
198811	342	GREENSPAN	 Anyone who would like to-- 	13	13	1.0	1.0	47.0
198811	343	JOHNSON	 Can I just make a couple of remarks? I'm not sure where we're going from here. Like everyone else, I think things look pretty good at the moment; whether it's good fortune or our good sense, it's hard to tell, but I'll take either one. The situation does look fairly good at the moment, but where we're headed and what we'll be faced with is a little difficult to tell. I guess I'm a  little more optimistic about the future--just on the basis of how well we have done in keeping domestic demand relatively modest. Whether that's going to be enough, I don't know. If foreign demand surges while we're so internationally competitive, we could put more stress on the manufacturing sector, but that's not evident. Domestic demand abroad has at least been reasonably good, but if both Germany and Japan take some modest tightening action--Germany perhaps more than Japan--I don't see demand for our exports being out of control by any means. And there's some evidence on the trade side of a slowing of exports, so I don't see that source overtaxing our capacity. Growth of our gross domestic purchases, which is I guess the broadest measure of domestic demand, has been very modest--around 1-1/2 percent. The other measures which are a little narrower, have been higher but they've been trending down. And this paper that was presented today, and the comments about the loan situation, how much growth can you get out of that kind of a M2 picture? You can't get a lot. There's only so much, even if you make some fairly optimistic assumptions about the kind of velocity growth you could get from M2, which has a long-term zero trend. You can't get some sort of disaster out of that, and so I see the long run looking fairly good. That may mean that pressures surface later to some extent, and if that happens we'll have to move. Right now, things look pretty good. 	13	13	1.0	1.0	44.0
198811	344	GREENSPAN	 President Black. 	13	13	1.0	1.0	47.0
198811	345	BLACK	 There have been very few changes in the Greenbook projections this time from last time, and we agree pretty broadly with that and think they are pretty closely on target. It seems clear that there has been a slowing in real activity--or there was in the third quarter--and I think it's reasonable to suppose that, on a drought- adjusted basis, the economy will grow more slowly next year than it has this year. At the same time, I think the risks are on the upside but I think they've got a pretty good forecast. I wouldn't be quite as sure about the risks on the upside as Frank Morris, but I'd be more or less about where Ed Boehne came out on both the level of output and prices. 	13	13	1.0	1.0	7.0
198811	346	GREENSPAN	 Governor Heller. 	13	13	1.0	1.0	47.0
198811	347	HELLER	 Well, it's getting pretty late, and I really have nothing to add, so I'll pass. Thank you. 	13	13	1.0	1.0	46.0
198811	348	GREENSPAN	 Governor Kelley. 	13	13	1.0	1.0	47.0
198811	349	KELLEY	" Well, I don't have anything to add either, but I will! I hear a lot of consensus around the table as to where we are now, and a lot of well-taken warnings as to what could occur in the future. And those warnings seem to be cutting in a variety of different ways. What that tells me is that we simply must do what we'll do anyway, and that is be very watchful. But it's a little bit too early at this point to reach any strong convictions as to what should be done, or which way things are going. Now, like Peter Sternlight earlier in the morning when he was giving his report, I thought it was a good theme for the day and that is ""steady as she goes . "" "	13	13	1.0	1.0	48.0
198811	350	GREENSPAN	 President Morris, you're the last one. I guess you think you've said enough, is that right?  	13	13	1.0	1.0	47.0
198811	351	MORRIS	 I guess that's right. Yes. 	13	13	1.0	1.0	1.0
198811	352	GREENSPAN	 Why don't we now move on to staff comments on monetary policy and the directive? Mr. Kohn. 	21	21	2.0	1.0	47.0
198811	353	KOHN	" In domestic financial markets, as Mr. Sternlight has already recounted, the intermeeting period was marked by sluggish money growth and  small net movements in interest rates, which further flattened the yield  curve. The slow expansion of the money supply by and large had been an  anticipated result of the previous firming of short-term interest rates  and opportunity costs. The damping effects of these rate movements are  likely to wear off very gradually. M2 growth is expected to pick up  slightly in November and December to around 3 percent under alternative  B and would strengthen modestly further in the first quarter to around  4 or 4-1/2 percent, at current interest rates.  These relatively slow money growth paths are expected to be consistent with the fairly robust expansion of nominal GNP in the staff  forecast. Velocity began to rise sharply in the third quarter in response  to the increase in rates beginning in March, and we would expect additional increases in velocity of around 4-1/2 percent at an annual rate in  the fourth and first quarters even without a further rise in rates. This  reflects the relatively slow process of adjustment to previous increases  in market interest rates both on the part of banks adjusting offering  yields on deposits and the public in adjusting its portfolios. In our  models, an increase in interest rates continues to reduce money demand and  raise velocity for about six quarters, though by smaller amounts after the  second quarter following the rate rise.  Thus a string of very moderate money growth numbers wouldn't  necessarily indicate the the economy was weakening or that policy was becoming overly restrictive. Indeed, as has already been discussed, given  the underlying demand and price pressures embodied in the greenbook forecast, M2 growth would need to be constrained to around 4 percent in 1989  as part of a monetary policy that would involve further upward movements  in interest rates to create conditions conducive to begin damping inflation or in the parlance of earlier today, to reduce p* to below p. This  implies a prolonged period of essentially no growth in real M2 starting  in 1987 and lasting at least through 1989 in the staff forecast. This  would be unprecedented in recent experience, which generally has encompassed rapid real M2 growth early in the expansion, and sharp declines  late in expansion and early in recession as policy tightened. But the M2  path for 1988-89 is associated and consistent with an unprecedented performance of the economy as well in the staff forecast continued expansion  involving relatively sluggish expansion of domestic demand, very near full  employment, with little change in inflation.  Even so, M2 growth of only 1-1/2 percent in September and October, somewhat short of projections, together with the flattening yield  curve could raise questions about the degree to which policy is restraining the economy. In this regard, it is important to note that the shortfall of money was not in its retail deposit component, but rather in RPs,  Eurodollars, and demand deposits. The determination of these components  seems to have more to do with how credit flows are channelled through  banks and how businesses decide to pay banks for the various services they  receive, than it does with the process of creating and spending national  income. While a tendency for M2 growth to run appreciably below 3 percent  for some time might raise questions, the recent shortfall was not very  large relative to the usual margin of error governing these forecasts.  In addition, the money and yield curve movements since the last  FOMC have occurred against a backdrop of a declining dollar, a rising  stock market, essentially flat commodity prices ex food and energy and a  spate of credit-financed takeover bids none of which suggests nigh or  rising real interest rates or a shortage of credit or liquidity. It seems  evident from the behavior of long-term rates that markets do not anticipate the kind of steady and prolonged policy tightening that is in the  staff forecast. This probably reflects both a different assessment of the  underlying pressures on the economy and prices and a sense that the FOMC  may not take actions to push inflation below the current 4 to 5 percent  range embedded in expectations.  In previous expansions, yield curves this flat have not signalled  imminent weakness in the economy. For example these spreads prevailed in  early 1968 and early 1978"" in both cases when policy may have been insufficiently tight to prevent a subsequent pick up in inflation. And, we  have had a similar yield curve once before in the current expansion in  1986 that was followed by two years of strong growth. In that episode,  long-term rates were falling, apparently in response to declining oil  prices, while monetary policy was following with a lag.  In 1988 we are looking at another decline in oil prices, albeit  of considerably smaller proportions, and accompanied by a much more  restrained reaction in bond markets. Even so, the drop in oil prices does  raise interesting questions about possible policy adjustments. Lower oil  prices bolster demand by raising the real money stock and increasing real  disposable income of consumers. Inflation would be lower in the short-  run, and over time the reduction in oil prices allowssome expansion of  aggregate supply. But over the medium-term, the increase in demand would  tend to put pressures on productive capacity, which, given the current  high level of employment, could raise the risk of higher inflation once  the direct effect of lower oil prices wears off. In contrast to 1986, we  have little room to take the oil price bonus in higher output. However,  if both employees and producers moderate wage and price increases in  response to lower oil prices, there could be an opportunity for monetary  policy not only to hold the line on prices, but to validate and sustain  the temporary decrease in inflation. A policy to accomplish this would  seem to call for a lower rate of growth of nominal money supply than  otherwise to hold down nominal income growth and prevent a rise in real  money balances. It would also entail a cautious approach to validating  any tendency for nominal interest rates to rise along a lower trajectory or  even to fall in response to the oil price decline. In the staff forecast,  as Mike has said, nominal rates are now seen to rise more slowly over  1989, but short-term rates eventually reach about the same levels as in  previous forecasts. In effect, this would serve to keep real rates from  falling relative to what they otherwise would have been; indeed, real  rates may have to be firmer if there is an appreciable effect on final  demand from the oil price change. "	21	21	2.0	0.0	999.0
198811	354	GREENSPAN	 I must say, listening to this, it doesn't sound all that different from our last meeting. Questions for Mr. Kohn? 	22	22	2.0	1.0	47.0
198811	355	HELLER	 Don, how long do you think that that slowdown in Ml and also to an extent in M2 can be sustained without really having an impact on the real side? You talked a bit about velocity, but if you're looking at Ml, we're really looking at zero growth out for the period that you're talking about. 	22	22	2.0	1.0	46.0
198811	356	KOHN	 Right. I think we could have very sluggish growth for Ml for some time to come. Part of this is the demand deposit phenomenon. We expect extremely weak demand deposits over the next couple of months as firms catch up on compensating balances. It really has practically nothing to do with their transactions and their spending, but rather with how they compensate banks for the services they get. In addition, we have a very steep deposit yield curve that I would expect to narrow only gradually, even if rates remain where they are--to abstract from any further increase in rates. And that will continue to induce both savings-type balances and other checkable deposits and NOW accounts to move into time deposits. So, I think we could have extremely sluggish growth in Ml for some time to come without necessarily having any implications for the economy. Think about demand deposits: We have a lower level of demand deposits now than we had two years ago, and in the meantime we've had 7 percent nominal GNP growth. It just doesn't seem to have very much effect. 	22	22	2.0	0.0	999.0
198811	357	HELLER	 You can argue the other way around, too. You can stretch a rubber band only so far, or you're taking up the slack that really exists there. 	22	22	2.0	1.0	46.0
198811	358	KOHN	 In the rubber band analogy--, in the NOW accounts, there's still quite a bit that is savings motivated, and I think a lot of that can move out. As for M2, which you also asked about, it depends really on the underlying forces in the economy. If you had an economy that wasn't showing the kind of strength that's really implicit in this staff forecast, and interest rates were flat, I'd expect income to keep growing, say, along a 6 percent path. Then M2 growth rates would have to rise toward that, but very gradually, and perhaps we wouldn't reach a 6 percent rate of growth consistent with that very nice kind of outlook until the latter part of next year. But there's enough elasticity in that rubber band, I believe, to support considerable output growth without that much M2 growth or Ml growth. 	22	22	2.0	0.0	999.0
198811	359	HELLER	 How about the takeover activity, how does that affect the-- 	22	22	2.0	1.0	46.0
198811	360	KOHN	 I think the principal effects there would be on M3--there's a little effect on M2--because it will be financed largely through the banks who will be issuing a lot of managed liabilities and  that will find its way into M3. We've built that into our forecast. That's one of the reasons why we have the strong M3 toward the end of this year in the Bluebook. There's a small effect on M2. For one thing, some of the managed liabilities they will issue will be the stuff that will end up in M2--overnight Eurodollars, for example. For another, you have the possibility that with a huge volume of takeover activity the people selling the shares may take a while to figure out what they want to do with the proceeds, and they might park that in M2 temporarily. In the past, we haven't really found a noticeable effect from that, but I'm not ruling that out with the huge volume that could happen this time. But I'd expect the effects on M2 to be very small. 	22	22	2.0	0.0	999.0
198811	361	HELLER	 Thanks. 	22	22	2.0	1.0	46.0
198811	362	GREENSPAN	 Governor Johnson. 	22	22	2.0	1.0	47.0
198811	363	JOHNSON	 I want to follow up on your comment about oil prices. I agree with a lot of what you said about that, but with that kind of increase in real disposable income, it might have an effect on demand that you wouldn't necessarily want to validate fully. However, that still may mean that nominal rates would fall, even though you're saying that you wouldn't let real interest rates come down as much. 	22	22	2.0	1.0	44.0
198811	364	KOHN	 I'm not sure exactly what would happen to nominal rates. That's why I tried to word it carefully to be vague, because I've thought about that. And it's not clear because I think it's important that real interest rates not fall in this circumstance. Nominal rates I can't tell you about, because I don't know quite what's going to happen to inflation expectations. 	22	22	2.0	0.0	999.0
198811	365	JOHNSON	 Well, that's what I'm thinking, but if there were a real plunge in prices from this level, and they seem to be viewed as more permanent than this [unintelligible]. 	22	22	2.0	1.0	44.0
198811	366	KOHN	 If inflation expectations really did come down and the Federal Reserve was seen as validating those lower inflation rates so that the expectations are right, then I don't see happening what I think occurred in 1986 when the bond market kind of got carried away with the oil price decline, in effect reducing real interest rates. It was very hard to determine at the time and it depends on whose expectations we're talking about. As a consequence, we got very strong growth in the economy partly as a consequence of that and the decline in the dollar that went along with it. We got very strong growth in the economy in the subsequent two years. I don't see that happening right now, but I think it's something that we ought to think about as-- 	22	22	2.0	0.0	999.0
198811	367	ANGELL	 But, Don, real GNP was negative in the second quarter of 1987. 	22	22	2.0	1.0	43.0
198811	368	KOHN	 That's in the second quarter. I think with the lags in the system, Governor Angell, that the real effects were out after the [second quarter.] 	22	22	2.0	0.0	999.0
198811	369	JOHNSON	 Yes, I'm just saying, though, I agree if we didn't appear to be trying to accommodate every bit of it you could expect that that still may mean that you would accommodate some of it.  	22	22	2.0	1.0	44.0
198811	370	KOHN	 You could have lower nominal interest rates. And all I was arguing for was a very cautious approach to that, if that's the way things--. I would drag my feet. 	22	22	2.0	0.0	999.0
198811	371	GREENSPAN	 Any other questions for Don? Why don't we start the Committee discussion? Let me start off. I think the crucial question we have to ask ourselves is: To what extent has this been luck or successful policy? It's probably a bit of both; I don't think we can segregate the two effects, as Ed pointed out earlier. But what is important here, as I see it, is that to the extent policy has been the source of this slowing, then it's very crucial that we not be perceived as weakening prematurely. As best I can judge, it's extraordinarily difficult to manage a gradual unwinding of the economy from the types of imbalances we currently have. There is very little evidence [currently] of the type of sharp expansions, construction booms, or inventory accumulations that are capable of reversing very quickly. And so long as those types of dangers are not there, it's very difficult to imagine--from where we stand--the types of developments that would bring the economy down quickly from here. If this is true, it is in a sense saying that what we're going through is a pause, and that the slowing is likely to diminish rather quickly. I think that what we're probably in the process of seeing is that the slowing of the spring and early summer is probably coming to an end because we still have very high [delivery] backlogs. We still have momentum in the system, and we still have some very strong numbers in the capital investment area. What has not been mentioned today is the reading on second-quarter capital appropriations, which I found rather impressively strong especially following what probably is a statistical weakness in the first-quarter data. In any event, as I have listened to the discussion today, everyone seems to be generally satisfied that we are in relative balance and that no significant policy action seems to be desired. I would conclude from that that we probably ought to stay precisely where we are--meaning the same directive as the last time, with asymmetric language towards firming. If for no other reason, if the Fed has been perceived of as being a restrainer of inflation, a restrainer of imbalances, there are probably far greater risks in just the psychology of perception if we go from asymmetric to symmetric language. Even though it will not be released for a number of weeks, the markets will read a symmetric directive as though we are in the first stage of backing off. That statement is not a forecast of the direction of the next significant monetary policy action or a prediction that the markets would probably read far more into a symmetric directive than we would anticipate, but I would hope that we could stay pretty much with the language we adopted the last time. My suspicion is that, as we come out of this slowing, we will probably find the staff's forecast to be relatively close to the mark. I might add parenthetically that there's a strong first-quarter GNP in the staff's forecast, which I believe is wholly the result of expected statistical adjustments to the GNP data to show a liquidation of farm inventories in the fourth quarter and a sharp increase in the first quarter. And no farmer in the country will recognize those numbers. Governor Heller. 	23	23	2.0	1.0	47.0
198811	372	HELLER	 I can certainly support that suggestion. You didn't say anything about the federal funds rate associated with it. I would hope that would be back into the middle of the range that we  had anticipated for the federal funds rate when we approved the last directive. 	23	23	2.0	1.0	46.0
198811	373	GREENSPAN	 I would think--based on Mr. Kohn's remarks--that the current funds rate is perceived as being somewhat abnormal, if that's not an exaggeration with your insights. 	23	23	2.0	1.0	47.0
198811	374	HELLER	 Thanks. 	23	23	2.0	1.0	46.0
198811	375	GREENSPAN	 President Melzer. 	23	23	2.0	1.0	47.0
198811	376	ANGELL	 You support borrowing of $600 million? 	23	23	2.0	1.0	43.0
198811	377	GREENSPAN	 Yes, it's essentially-- 	23	23	2.0	1.0	47.0
198811	378	JOHNSON	 Well, that's the question I think. Well, I think what he's saying-- 	23	23	2.0	1.0	44.0
198811	379	HELLER	 What I'm really saying is supporting the funds rate at somewhere, well at about l/8th. 	23	23	2.0	1.0	46.0
198811	380	PARRY	 That seems to raise a lot of issues. 	23	23	2.0	1.0	45.0
198811	381	BLACK	 Well, it's been the day to do things. 	23	23	2.0	1.0	7.0
198811	382	GREENSPAN	 The Desk will endeavor to implement--if everyone is agreeing--policy in the manner in which it has been recently implemented. 	23	23	2.0	1.0	47.0
198811	383	ANGELL	 You mean $600 million is the borrowing target? 	23	23	2.0	1.0	43.0
198811	384	GREENSPAN	 $600 million is the borrowing target. 	23	23	2.0	1.0	47.0
198811	385	ANGELL	 Okay. 	23	23	2.0	1.0	43.0
198811	386	JOHNSON	 That's the decoded part of it! 	23	23	2.0	1.0	44.0
198811	387	GREENSPAN	 President Melzer. 	23	23	2.0	1.0	47.0
198811	388	MELZER	 I'm in agreement with what you suggested, although I wanted to register a mild note of concern. I have been surprised at the extent to which money and credit have flattened out since July and August. I think it's a coincidence largely that it happened to be around the time of the discount rate increase; but then again, because of all the fragilities out there, perhaps the increase had quite an expectational impact. I'm sure it also reflects some of the lags of what we've been doing; but if you look over the most recent three months or so, the thrust of policy as reflected by the monetary base, that growth has been relatively slow, and reserves have actually been shrinking. I don't think it's time right now to do anything about that, particularly with the dollar under pressure, but it does concern me because I don't think by any stretch of the imagination that we have whipped the inflationary pressures that we've seen. If we get way out of position, if you will, in the short run in policy--and subsequently we're forced to reverse policy very sharply for short-term reasons, it's going to make the long-term battle a lot more difficult to win. So, that's just a note of concern. I would support what you said.  	23	23	2.0	1.0	42.0
198811	389	GREENSPAN	 I don't think anyone would disagree with the way you put it. President Morris. 	23	23	2.0	1.0	47.0
198811	390	MORRIS	 Well, Mr. Chairman, I support your position despite my longer-term concerns. I think at the present juncture there's no basis for changing monetary policy. 	23	23	2.0	1.0	1.0
198811	391	GREENSPAN	 President Keehn. 	23	23	2.0	1.0	47.0
198811	392	KEEHN	 Mr. Chairman, I also would be in agreement with what you recommend. I might have come prepared to argue for shifting language to symmetric, but I don't feel strongly about it. But I do have a question about the borrowing level. The $600 million--, we have been through a period where the borrowing level has been at $600 million with a significant seasonal component. I meant to ask Peter about this earlier. I have a feeling that at this time each year as the level of seasonal borrowing comes down, the level of adjustment borrowing builds up. But there's a possibility that this shift in composition of borrowing may have caused the federal funds rate, for this and other reasons, to be a little bit higher than our anticipation. And if this is the case then maybe we need to think about a precise borrowing number. 	23	23	2.0	1.0	35.0
198811	393	GREENSPAN	 We have been thinking about that a great deal and doing a lot of testing. I don't know whether or not we've come up with a final conclusion on this, but that's an issue which is absorbing a good deal of time for Mr. Kohn and his colleagues. 	23	23	2.0	1.0	47.0
198811	394	KEEHN	 But on the anticipation that $600 million is consistent with l/8th or l/4th, that's what I would favor. 	23	23	2.0	1.0	35.0
198811	395	GREENSPAN	 President Boehne. 	23	23	2.0	1.0	47.0
198811	396	BOEHNE	 I agree with your recommendation. 	23	23	2.0	1.0	33.0
198811	397	GREENSPAN	 President Black. 	23	23	2.0	1.0	47.0
198811	398	BLACK	 Mr. Chairman, I agree with your recommendation, too. I'm very sympathetic to what Tom Melzer has said, though. We can probably explain the weakness in the aggregates, and the early increases in short-term rates up to this point, but next meeting I will be in favor of a symmetric directive if the weakness in money continues for another month. For now, I would agree completely with what you recommended. 	23	23	2.0	1.0	7.0
198811	399	GREENSPAN	 President Forrestal. 	23	23	2.0	1.0	47.0
198811	400	FORRESTAL	 Mr. Chairman, I think we're going to have to make a move fairly soon, but I don't think this is the time to do it. I think the risk is still on the upside. So, I would agree with your prescription. And I think it's very, very important that we maintain the asymmetric directive. 	23	23	2.0	1.0	39.0
198811	401	GREENSPAN	 President Hoskins. 	23	23	2.0	1.0	47.0
198811	402	HOSKINS	 Well, I guess my views haven't changed much. Although I do have concerns about what Governor Johnson discussed, some flattening of the yield curve, I think that does provide some  information. Also, no growth in Ml and very low growth rates of M2 cause me some difficulty. We ran the Rasche model and we got, using Board staff assumptions, 6.6 percent growth in the monetary base in 1988 and 5.4 percent in 1989. That gives me some degree of comfort that the policy path would not be abrupt. Given where the staff has M2 growth near year end, and given that I think that would probably be an appropriate growth rate to see in 1989, I certainly can live with your proposal. 	23	23	2.0	1.0	49.0
198811	403	GREENSPAN	 Governor Angell. 	23	23	2.0	1.0	47.0
198811	404	ANGELL	" I'm very sympathetic with Tom Melzer and Bob Black, and with Lee Hoskins's questions about money growth. I think the 2-1/2 percent growth rate of M2 from September to December in alternative ""B"" is just fine. I would be somewhat uneasy if we were to get lower growth than that. I would not like to see those growth rates get down close to zero over a period of time because I believe that would cause some bounce-back. If that low growth were to be the case, then I think we really ought to talk about it before the next meeting; that is, I think we ought to have a conference call. On the other hand, if the aggregates begin to snap back faster than the staff is projecting, then I would want to be very alert to a possibility of tightening because I think where we are is just fine. Now, I have to admit that what I'm saying is really consistent with symmetric language, not asymmetric. And my caution would be that we use the appropriate language here; that is, I would like the market to learn that when we say we're asymmetric that we have a feeling that things are going to change. I don't think that's the case here, and so I would slightly prefer--not enough to vote against an asymmetric directive--but I would slightly prefer to have it be symmetric. Also, I think that when this directive is announced in December, if we haven't changed policy then the fact that we were symmetric won't even be noticed. On the other hand, if we have tightened, nobody is going to care what we were at this point; and, in the unlikely event that we have to ease, we would look a little smarter. So I think there's a fair case for symmetric language. "	23	23	2.0	1.0	43.0
198811	405	GREENSPAN	 Governor Seger. 	23	23	2.0	1.0	47.0
198811	406	SEGER	" Yes, I'm certainly willing to stick with alternative ""B"". I would note that my remarks about signs of less robust business growth and the performance of monetary aggregates have been pointed out by some others as well. I don't think anyone has mentioned that there are financial market participants who thought, as of a couple of weeks ago, that we had tightened monetary policy somewhat when they saw the federal funds rate creep up to 8-1/4 percent or above. So I think I can vote for alternative ""B"" but I feel fairly strongly that there should be symmetric language rather than asymmetric. And if the $600 million borrowing target were to mean a federal funds rate of 9-1/2 percent, then I would have a problem with that. "	23	23	2.0	1.0	40.0
198811	407	ANGELL	 Some of the rest of us might, too. 	23	23	2.0	1.0	43.0
198811	408	SEGER	 I wasn't sure. 	23	23	2.0	1.0	40.0
198811	409	GREENSPAN	 President Stern.  	23	23	2.0	1.0	47.0
198811	410	STERN	 I support your recommendation and would only add that I think Governor Angell makes some valid points about the value of the language in the directive. But it does seem to me that asymmetric language remains appropriate at this juncture as I gauge the risks. 	23	23	2.0	1.0	41.0
198811	411	GREENSPAN	 President Boykin. 	23	23	2.0	1.0	47.0
198811	412	BOYKIN	 I would agree with your policy prescription, Mr. Chairman. 	23	23	2.0	1.0	34.0
198811	413	GREENSPAN	 Governor Johnson. 	23	23	2.0	1.0	47.0
198811	414	JOHNSON	 I also support this directive. I think I can support the directive as long as over the next intermeeting period we're not likely to be confronted with any possibility of easing. And I think that's probably a very good possibility. But I do have a little sensitivity to what Tom Melzer said, because I don't think the probability really is zero that some unforeseen event might surface; and I think we may be living a little close to the edge, although part of it may be statistical aberrations. The Chairman pointed out that the farm situation is subtracting from fourth-quarter GNP and adding to first-quarter 1989 GNP; I think estimates are for about minus 1-1/4 percent or something like that from the fourth-quarter growth rate. And given the third-quarter starting point, the economy must grow a lot over the next three months to exceed the third-quarter's midpoint. And I'm concerned that we might find ourselves, at least statistically, in a situation that would not lead us to change policy but certainly could create some perception problems. Statistically, we could end up with a flat or slightly negative quarter in the fourth quarter with the drought adjustment; but I don't think that result will be anything fundamental and will be made up in the first quarter. I'm comfortable with asymmetric language, but I think if we found ourselves in a situation where there was a need to ease--even if it were only a slight easing--it would be uncomfortable given that language. So maybe we ought to consider that possibilty seriously, if things don't change by the time of our next meeting. But I can live with asymmetric now. 	23	23	2.0	1.0	44.0
198811	415	GREENSPAN	 Governor Kelley. 	23	23	2.0	1.0	47.0
198811	416	KELLEY	 Mr. Chairman, I support your recommendation, but I am sympathetic with those who expressed some interest in going to symmetric language both on the basis of what might be happening in the economy and also watching very carefully what happens to the aggregates in the upcoming period. But for now, I fully support your recommendation. 	23	23	2.0	1.0	48.0
198811	417	GREENSPAN	 Vice Chairman. 	23	23	2.0	1.0	47.0
198811	418	CORRIGAN	 I support your recommendation. 	23	23	2.0	1.0	31.0
198811	419	GREENSPAN	 President Parry. 	23	23	2.0	1.0	47.0
198811	420	PARRY	 Mr. Chairman, I support your recommendation, particulary the asymmetric language. One point I'd make is that I have a greater emphasis on hitting the $600 million borrowings target. It seems to me it's not really necessary to worry about a federal  funds rate which differs by an l/8th or l/4th from what statistical relationships would seem to indicate between borrowings and the funds rate. 	23	23	2.0	1.0	45.0
198811	421	GREENSPAN	 President Guffey. 	23	23	2.0	1.0	47.0
198811	422	GUFFEY	 I support your recommendation, Mr. Chairman. I came in with some feeling of moving to a symmetric directive, but I have no quarrel with keeping it asymmetric for this time. 	23	23	2.0	1.0	20.0
198811	423	GREENSPAN	 Governor LaWare, do you want to-- 	23	23	2.0	1.0	47.0
198811	424	LAWARE	 I agree and support the asymmetric language. 	23	23	2.0	1.0	50.0
198811	425	GREENSPAN	 As I hear it, we have a significant concentration on repeating the directive of the last meeting. I ask the Assistant Secretary to read it again. 	23	23	2.0	1.0	47.0
198811	426	BERNARD	 In the implementation of policy for the immediate future, the Committee seeks to maintain the existing degree of pressure on reserve positions. Taking account of indications of inflationary pressures, the strength of the business expansion, the behavior of the monetary aggregates, and developments in foreign exchange and domestic financial markets, somewhat greater reserve restraint would or slightly lesser reserve restraint might be acceptable in the intermeeting period. The contemplated reserve conditions are expected to be consistent with growth of M2 and M3 over the period from September through December at annual rates of about 2-1/2 and 6 percent, respectively. The Chairman may call for Committee consultation if it appears to the Manager for Domestic Operations that reserve conditions during the period before the next meeting are likely to be associated with a federal funds rate persistently outside a range of 6 to 10 percent. 	23	23	2.0	0.0	999.0
198811	427	GREENSPAN	 Call the roll. 	23	23	2.0	1.0	47.0
198811	428	BERNARD	 Chairman Greenspan Yes Vice Chairman Corrigan Yes Governor Angell Yes President Black Yes President Forrestal Yes Governor Heller Yes President Hoskins Yes Governor Johnson Yes Governor Kelley Yes Governor LaWare Yes President Parry Yes Governor Seger I'm torn. 	23	23	2.0	0.0	999.0
198811	429	HELLER	 Abstain. 	23	23	2.0	1.0	46.0
198811	430	SEGER	 Yes, can I abstain? No, last time I went along with it and the asymmetric language even though I didn't want the asymmetric. So, this time I'm willing to go along except that I have such a problem with the asymmetric. I think I will dissent, since I can't vote 50-50.  	23	23	2.0	1.0	40.0
198811	431	GREENSPAN	 Our next meeting date is scheduled for December 13 and 14. It will not be known for a few days at least whether or not the 13th will be necessary. So, I request that you hold the 13th open until you hear specifically whether or not that date will be necessary. The evening of the 13th we will have an FOMC dinner in which we will give our best to our longest-serving member, Frank Morris, who has attended his last meeting today. Frank has served for more than 20 years, during which there were 210 regularly scheduled meetings, and it appears that he missed only one meeting. ] think that's an extra-ordinary record. No question we are all going to miss you, Frank, but we will get a chance hopefully to see you at dinner on the 13th. If there are no further items of business, the meeting officially is adjourned, and lunch is served. 	1	1	0.0	1.0	47.0
